"File: BC3602_CONFIG_TABLE.h  Assembler  Version HGASM0202      Page 1


   1  0000              ; Generated by holtek-gcc v3.19, Fri May 27 15:24:05 2022
   2  0000              ; 
   3  0000              ; Configuration:
   4  0000              ;       with long instruction
   5  0000              ;       Single ROM, Multi-RAM
   6  0000              ;       bits_per_rom_unit:16
   7  0000              ;       with mp1
   8  0000              ;       with tbhp, address(0x9)
   9  0000              ;          Use tabrd-const
  10  0000              ;       
  11  0000              ; SFR address of long-instruction arch:
  12  0000              ;    mp0 = -1,1,0
  13  0000              ;    mp1 = 4,3,2
  14  0000              ;    mp2 = 14,13,12
  15  0000              ;    tbp = 9,7,8
  16  0000              ;    acc = 5
  17  0000              ;    pcl = 6
  18  0000              ;    status = 10
  19  0000              ;    bp = 11
  20  0000              ;    intc = 17
  21  0000              ;       
  22  0000              ;       
  23  0000              ; use 'tabrdc' instead of 'tabrd'
  24  0000              ;       
  25  0000              
  26  0000              #pragma translator "holtek-gcc 4.6.4" "3.19" "build 20130711"
  27  0000              ; Rebuild 718
  28  0000              
  29  0000              ir equ [2]
  30  0000              mp equ [3]
  31  0000              sbp equ [4]
  32  0000              acc equ [5]
  33  0000              bp equ [11]
  34  0000              tblp equ [7]
  35  0000              tbhp equ [9]
  36  0000              status equ [10]
  37  0000              c equ [10].0
  38  0000              ac equ [10].1
  39  0000              z equ [10].2
  40  0000              ov equ [10].3
  41  0000              cz equ [10].6
  42  0000              sc equ [10].7
  43  0000              intc equ [17]
  44  0000              
  45  0000              extern ra:byte
  46  0000              extern rb:byte
  47  0000              extern rc:byte
  48  0000              extern rd:byte
  49  0000              extern re:byte
  50  0000              extern rf:byte
  51  0000              extern rg:byte
  52  0000              extern rh:byte
  53  0000              extern _Crom2Prom:near
  54  0000              extern _Crom2PromNext:near
  55  0000              
  56  0000              RAMBANK 0 @BITDATASEC, @BITDATASEC1
  57  0000              @HCCINIT	.section 'data'
  58  0000              @HCCINIT0	.section 'data'
  59  0000              @BITDATASEC	 .section 'data'
"File: BC3602.ASM    Assembler  Version HGASM0202      Page 2

  60  0000              @BITDATASEC1	 .section 'data'
  61  0000              
  62  0000              #pragma debug scope 1 1
  63  0000              	extern __DELAY3:near
  64  0000              	extern __DELAYX3:near
  65  0000              	extern __DELAYX6:near
  66  0000              	extern __DELAYY5:near
  67  0000              	extern __DELAYY3:near
  68  0000              	extern _builtin_holtek_delay_2:byte
  69  0000              public _SpiWriteRegCMD
  70  0000              #pragma debug scope 2 1

  29  0000              #line 29 "c:\users\user\documents\htk_project\3652_adc_test_vib_1\BC3602.c"
  29  0000              _SpiWriteRegCMD .section 'code'
  29  0000              _SpiWriteRegCMD proc
  29  0000              public _SpiWriteRegCMD_2
  29  0000  0002[           local _SpiWriteRegCMD_2 db 2 dup(?)	; 1,1
            00
            ]
  29  0000  0080     R  	mov _SpiWriteRegCMD_2[1],a
  29  0001              #pragma debug variable 8 2 _SpiWriteRegCMD_2+1 "REG"
  29  0001              #pragma debug variable 8 2 _SpiWriteRegCMD_2+0 "DATA"
  30  0001              #line 30 "c:\users\user\documents\htk_project\3652_adc_test_vib_1\BC3602.c"
  30  0001  2000     E  	call _SpiCSN_low
  31  0002              #line 31 "c:\users\user\documents\htk_project\3652_adc_test_vib_1\BC3602.c"
  31  0002  0700     R  	mov a,_SpiWriteRegCMD_2[1]
  31  0003  0080     E  	mov ra,a
  31  0004  3000     E  	set ra.6
  31  0005  0700     E  	mov a,ra
  31  0006  2000     E  	call _SpiWrite
  32  0007              #line 32 "c:\users\user\documents\htk_project\3652_adc_test_vib_1\BC3602.c"
  32  0007  0700     R  	mov a,_SpiWriteRegCMD_2[0]
  32  0008  2000     E  	call _SpiWrite
  33  0009              #line 33 "c:\users\user\documents\htk_project\3652_adc_test_vib_1\BC3602.c"
  33  0009  2000     E  	call _SpiCSN_high
  33  000A  0003        	ret
  33  000B              _SpiWriteRegCMD endp
  33  000B              #line 33 "c:\users\user\documents\htk_project\3652_adc_test_vib_1\BC3602.c"
  33  000B              #pragma debug scope 1 1
  33  000B              public _SpiWriteStrobeCMD
  33  000B              #pragma debug scope 3 1
  42  000B              #line 42 "c:\users\user\documents\htk_project\3652_adc_test_vib_1\BC3602.c"
  42  0000              _SpiWriteStrobeCMD .section 'code'
  42  0000              _SpiWriteStrobeCMD proc
  42  0000  00              local _SpiWriteStrobeCMD_2 db 1 dup(?)	; 0,1
  42  0000  0080     R  	mov _SpiWriteStrobeCMD_2[0],a
  42  0001              #pragma debug variable 8 3 _SpiWriteStrobeCMD_2+0 "CMD"
  43  0001              #line 43 "c:\users\user\documents\htk_project\3652_adc_test_vib_1\BC3602.c"
  43  0001  2000     E  	call _SpiCSN_low
  44  0002              #line 44 "c:\users\user\documents\htk_project\3652_adc_test_vib_1\BC3602.c"
  44  0002  0700     R  	mov a,_SpiWriteStrobeCMD_2[0]
  44  0003  2000     E  	call _SpiWrite
  45  0004              #line 45 "c:\users\user\documents\htk_project\3652_adc_test_vib_1\BC3602.c"
  45  0004  2000     E  	call _SpiCSN_high
  45  0005  0003        	ret
  45  0006              _SpiWriteStrobeCMD endp
  45  0006              #line 45 "c:\users\user\documents\htk_project\3652_adc_test_vib_1\BC3602.c"
  45  0006              #pragma debug scope 1 1
  45  0006              public _SpiReadRegCMD
  45  0006              #pragma debug scope 4 1
"File: BC3602.c      Assembler  Version HGASM0202      Page 3

  54  0006              #line 54 "c:\users\user\documents\htk_project\3652_adc_test_vib_1\BC3602.c"
  54  0000              _SpiReadRegCMD .section 'code'
  54  0000              _SpiReadRegCMD proc
  54  0000  0002[           local _SpiReadRegCMD_2 db 2 dup(?)	; 0,2
            00
            ]
  54  0000  0080     R  	mov _SpiReadRegCMD_2[0],a
  54  0001              #pragma debug variable 8 4 _SpiReadRegCMD_2+0 "REG"
  54  0001              #pragma debug variable 8 4 _SpiReadRegCMD_2+1 "ReadDATA"
  56  0001              #line 56 "c:\users\user\documents\htk_project\3652_adc_test_vib_1\BC3602.c"
  56  0001  2000     E  	call _SpiCSN_low
  57  0002              #line 57 "c:\users\user\documents\htk_project\3652_adc_test_vib_1\BC3602.c"
  57  0002  0700     R  	mov a,_SpiReadRegCMD_2[0]
  57  0003  0DC0        	or a,192
  57  0004  0080     E  	mov ra,a
  57  0005  0700     E  	mov a,ra
  57  0006  2000     E  	call _SpiWrite
  58  0007              #line 58 "c:\users\user\documents\htk_project\3652_adc_test_vib_1\BC3602.c"
  58  0007  2000     E  	call _SpiRead
  58  0008  0080     R  	mov _SpiReadRegCMD_2[1],a
  59  0009              #line 59 "c:\users\user\documents\htk_project\3652_adc_test_vib_1\BC3602.c"
  59  0009  2000     E  	call _SpiCSN_high
  61  000A              #line 61 "c:\users\user\documents\htk_project\3652_adc_test_vib_1\BC3602.c"
  61  000A  0700     R  	mov a,_SpiReadRegCMD_2[1]
  61  000B  0003        	ret
  61  000C              _SpiReadRegCMD endp
  61  000C              #line 61 "c:\users\user\documents\htk_project\3652_adc_test_vib_1\BC3602.c"
  61  000C              #pragma debug scope 1 1
  61  000C              public _RFWriteBuf
  61  000C              #pragma debug scope 5 1
  69  000C              #line 69 "c:\users\user\documents\htk_project\3652_adc_test_vib_1\BC3602.c"
  69  0000              _RFWriteBuf .section 'code'
  69  0000              _RFWriteBuf proc
  69  0000              public _RFWriteBuf_2
  69  0000  0005[           local _RFWriteBuf_2 db 5 dup(?)	; 3,2
            00
            ]
  69  0000  0080     R  	mov _RFWriteBuf_2[3],a
  69  0001              #pragma debug variable 8 5 _RFWriteBuf_2+3 "CMD"
  69  0001              #pragma debug variable 8 5 _RFWriteBuf_2+0 "length"
  69  0001              #pragma debug pointer 42 8 5
  69  0001              #pragma debug pointer 42 8 5
  69  0001              #pragma debug variable 42 5 _RFWriteBuf_2+1 "data"
  69  0001              #pragma debug variable 8 5 _RFWriteBuf_2+4 "a"
  71  0001              #line 71 "c:\users\user\documents\htk_project\3652_adc_test_vib_1\BC3602.c"
  71  0001  2000     E  	call _SpiCSN_low
  72  0002              #line 72 "c:\users\user\documents\htk_project\3652_adc_test_vib_1\BC3602.c"
  72  0002  0700     R  	mov a,_RFWriteBuf_2[3]
  72  0003  2000     E  	call _SpiWrite
  73  0004              #line 73 "c:\users\user\documents\htk_project\3652_adc_test_vib_1\BC3602.c"
  73  0004  1F00     R  	clr _RFWriteBuf_2[4]
  73  0005              _L5:
  73  0005              #line 73 "c:\users\user\documents\htk_project\3652_adc_test_vib_1\BC3602.c"
  73  0005  0700     R  	mov a,_RFWriteBuf_2[4]
  73  0006  0200     R  	sub a,_RFWriteBuf_2[0]
  73  0007  3C0A        	sz c
  73  0008  2800     R  	jmp _L8
  73  0009  0700     R  	mov a,_RFWriteBuf_2[4]
  73  000A  0300     R  	add a,_RFWriteBuf_2[1]
  73  000B  0083        	mov mp,a
"File: BC3602.c      Assembler  Version HGASM0202      Page 4

  73  000C  1F05        	clr acc
  73  000D  1300     R  	adc a,_RFWriteBuf_2[2]
  73  000E  0084        	mov sbp,a
  73  000F  2000     E  	call _Crom2Prom
  73  0010  2000     E  	call _SpiWrite
  73  0011  1480     R  	inc _RFWriteBuf_2[4]
  73  0012  2800     R  	jmp _L5
  73  0013              _L8:
  74  0013              #line 74 "c:\users\user\documents\htk_project\3652_adc_test_vib_1\BC3602.c"
  74  0013  2000     E  	call _SpiCSN_high
  74  0014  0003        	ret
  74  0015              _RFWriteBuf endp
  74  0015              #line 74 "c:\users\user\documents\htk_project\3652_adc_test_vib_1\BC3602.c"
  74  0015              #pragma debug scope 1 1
  74  0015              public _RFWriteBuf2
  74  0015              #pragma debug scope 6 1
  77  0015              #line 77 "c:\users\user\documents\htk_project\3652_adc_test_vib_1\BC3602.c"
  77  0000              _RFWriteBuf2 .section 'code'
  77  0000              _RFWriteBuf2 proc
  77  0000              public _RFWriteBuf2_2
  77  0000  0006[           local _RFWriteBuf2_2 db 6 dup(?)	; 3,3
            00
            ]
  77  0000  0080     R  	mov _RFWriteBuf2_2[3],a
  77  0001              #pragma debug variable 8 6 _RFWriteBuf2_2+3 "CMD"
  77  0001              #pragma debug variable 8 6 _RFWriteBuf2_2+0 "length"
  77  0001              #pragma debug pointer 43 8 6
  77  0001              #pragma debug pointer 43 8 6
  77  0001              #pragma debug variable 43 6 _RFWriteBuf2_2+1 "data"
  79  0001              #line 79 "c:\users\user\documents\htk_project\3652_adc_test_vib_1\BC3602.c"
  79  0001  2000     E  	call _SpiCSN_low
  80  0002              #line 80 "c:\users\user\documents\htk_project\3652_adc_test_vib_1\BC3602.c"
  80  0002  0700     R  	mov a,_RFWriteBuf2_2[3]
  80  0003  2000     E  	call _SpiWrite
  80  0004  0700     R  	mov a,_RFWriteBuf2_2[0]
  80  0005  0300     R  	add a,_RFWriteBuf2_2[1]
  80  0006  0080     R  	mov _RFWriteBuf2_2[4],a
  80  0007  1F05        	clr acc
  80  0008  1300     R  	adc a,_RFWriteBuf2_2[2]
  80  0009  0080     R  	mov _RFWriteBuf2_2[5],a
  80  000A              _L10:
  81  000A              #line 81 "c:\users\user\documents\htk_project\3652_adc_test_vib_1\BC3602.c"
  81  000A  0700     R  	mov a,_RFWriteBuf2_2[1]
  81  000B  0200     R  	sub a,_RFWriteBuf2_2[4]
  81  000C  0700     R  	mov a,_RFWriteBuf2_2[2]
  81  000D  1200     R  	sbc a,_RFWriteBuf2_2[5]
  81  000E  3F0A        	sz cz
  81  000F  2800     R  	jmp _L12
  83  0010              #line 83 "c:\users\user\documents\htk_project\3652_adc_test_vib_1\BC3602.c"
  83  0010  0700     R  	mov a,_RFWriteBuf2_2[1]
  83  0011  0083        	mov mp,a
  83  0012  0700     R  	mov a,_RFWriteBuf2_2[2]
  83  0013  0084        	mov sbp,a
  83  0014  2000     E  	call _Crom2Prom
  83  0015  2000     E  	call _SpiWrite
  84  0016              #line 84 "c:\users\user\documents\htk_project\3652_adc_test_vib_1\BC3602.c"
  84  0016  1480     R  	inc _RFWriteBuf2_2[1]
  84  0017  3D0A        	sz z
  84  0018  1480     R  	inc _RFWriteBuf2_2[2]
  84  0019  2800     R  	jmp _L10
"File: BC3602.c      Assembler  Version HGASM0202      Page 5

  84  001A              _L12:
  86  001A              #line 86 "c:\users\user\documents\htk_project\3652_adc_test_vib_1\BC3602.c"
  86  001A  2000     E  	call _SpiCSN_high
  86  001B  0003        	ret
  86  001C              _RFWriteBuf2 endp
  86  001C              #line 86 "c:\users\user\documents\htk_project\3652_adc_test_vib_1\BC3602.c"
  86  001C              #pragma debug scope 1 1
  86  001C              public _RFReadBuf
  86  001C              #pragma debug scope 7 1
  95  001C              #line 95 "c:\users\user\documents\htk_project\3652_adc_test_vib_1\BC3602.c"
  95  0000              _RFReadBuf .section 'code'
  95  0000              _RFReadBuf proc
  95  0000              public _RFReadBuf_2
  95  0000  0007[           local _RFReadBuf_2 db 7 dup(?)	; 3,4
            00
            ]
  95  0000  0080     R  	mov _RFReadBuf_2[3],a
  95  0001              #pragma debug variable 8 7 _RFReadBuf_2+3 "CMD"
  95  0001              #pragma debug variable 8 7 _RFReadBuf_2+0 "length"
  95  0001              #pragma debug pointer 44 8 7
  95  0001              #pragma debug pointer 44 8 7
  95  0001              #pragma debug variable 44 7 _RFReadBuf_2+1 "data"
  95  0001              #pragma debug variable 8 7 _RFReadBuf_2+4 "a"
  97  0001              #line 97 "c:\users\user\documents\htk_project\3652_adc_test_vib_1\BC3602.c"
  97  0001  2000     E  	call _SpiCSN_low
  98  0002              #line 98 "c:\users\user\documents\htk_project\3652_adc_test_vib_1\BC3602.c"
  98  0002  0700     R  	mov a,_RFReadBuf_2[3]
  98  0003  2000     E  	call _SpiWrite
  99  0004              #line 99 "c:\users\user\documents\htk_project\3652_adc_test_vib_1\BC3602.c"
  99  0004  1F00     R  	clr _RFReadBuf_2[4]
  99  0005              _L14:
  99  0005              #line 99 "c:\users\user\documents\htk_project\3652_adc_test_vib_1\BC3602.c"
  99  0005  0700     R  	mov a,_RFReadBuf_2[4]
  99  0006  0200     R  	sub a,_RFReadBuf_2[0]
  99  0007  3C0A        	sz c
  99  0008  2800     R  	jmp _L16
  99  0009  0700     R  	mov a,_RFReadBuf_2[4]
  99  000A  0300     R  	add a,_RFReadBuf_2[1]
  99  000B  0080     R  	mov _RFReadBuf_2[5],a
  99  000C  1F05        	clr acc
  99  000D  1300     R  	adc a,_RFReadBuf_2[2]
  99  000E  0080     R  	mov _RFReadBuf_2[6],a
  99  000F  2000     E  	call _SpiRead
  99  0010  0080     E  	mov ra,a
  99  0011  0700     R  	mov a,_RFReadBuf_2[5]
  99  0012  0083        	mov mp,a
  99  0013  0700     R  	mov a,_RFReadBuf_2[6]
  99  0014  0084        	mov sbp,a
  99  0015  0700     E  	mov a,ra
  99  0016  0082        	mov ir,a
  99  0017  1480     R  	inc _RFReadBuf_2[4]
  99  0018  2800     R  	jmp _L14
  99  0019              _L16:
 100  0019              #line 100 "c:\users\user\documents\htk_project\3652_adc_test_vib_1\BC3602.c"
 100  0019  2000     E  	call _SpiCSN_high
 100  001A  0003        	ret
 100  001B              _RFReadBuf endp
 100  001B              #line 100 "c:\users\user\documents\htk_project\3652_adc_test_vib_1\BC3602.c"
 100  001B              #pragma debug scope 1 1
 100  001B              public _RFReadBuf2
"File: BC3602.c      Assembler  Version HGASM0202      Page 6

 100  001B              #pragma debug scope 8 1
 104  001B              #line 104 "c:\users\user\documents\htk_project\3652_adc_test_vib_1\BC3602.c"
 104  0000              _RFReadBuf2 .section 'code'
 104  0000              _RFReadBuf2 proc
 104  0000              public _RFReadBuf2_2
 104  0000  0006[           local _RFReadBuf2_2 db 6 dup(?)	; 3,3
            00
            ]
 104  0000  0080     R  	mov _RFReadBuf2_2[3],a
 104  0001              #pragma debug variable 8 8 _RFReadBuf2_2+3 "CMD"
 104  0001              #pragma debug variable 8 8 _RFReadBuf2_2+0 "length"
 104  0001              #pragma debug pointer 45 8 8
 104  0001              #pragma debug pointer 45 8 8
 104  0001              #pragma debug variable 45 8 _RFReadBuf2_2+1 "data"
 106  0001              #line 106 "c:\users\user\documents\htk_project\3652_adc_test_vib_1\BC3602.c"
 106  0001  2000     E  	call _SpiCSN_low
 107  0002              #line 107 "c:\users\user\documents\htk_project\3652_adc_test_vib_1\BC3602.c"
 107  0002  0700     R  	mov a,_RFReadBuf2_2[3]
 107  0003  2000     E  	call _SpiWrite
 107  0004  0700     R  	mov a,_RFReadBuf2_2[0]
 107  0005  0300     R  	add a,_RFReadBuf2_2[1]
 107  0006  0080     R  	mov _RFReadBuf2_2[4],a
 107  0007  1F05        	clr acc
 107  0008  1300     R  	adc a,_RFReadBuf2_2[2]
 107  0009  0080     R  	mov _RFReadBuf2_2[5],a
 107  000A              _L18:
 108  000A              #line 108 "c:\users\user\documents\htk_project\3652_adc_test_vib_1\BC3602.c"
 108  000A  0700     R  	mov a,_RFReadBuf2_2[1]
 108  000B  0200     R  	sub a,_RFReadBuf2_2[4]
 108  000C  0700     R  	mov a,_RFReadBuf2_2[2]
 108  000D  1200     R  	sbc a,_RFReadBuf2_2[5]
 108  000E  3F0A        	sz cz
 108  000F  2800     R  	jmp _L20
 110  0010              #line 110 "c:\users\user\documents\htk_project\3652_adc_test_vib_1\BC3602.c"
 110  0010  2000     E  	call _SpiRead
 110  0011  0080     E  	mov ra,a
 110  0012  0700     R  	mov a,_RFReadBuf2_2[1]
 110  0013  0083        	mov mp,a
 110  0014  0700     R  	mov a,_RFReadBuf2_2[2]
 110  0015  0084        	mov sbp,a
 110  0016  0700     E  	mov a,ra
 110  0017  0082        	mov ir,a
 111  0018              #line 111 "c:\users\user\documents\htk_project\3652_adc_test_vib_1\BC3602.c"
 111  0018  1480     R  	inc _RFReadBuf2_2[1]
 111  0019  3D0A        	sz z
 111  001A  1480     R  	inc _RFReadBuf2_2[2]
 111  001B  2800     R  	jmp _L18
 111  001C              _L20:
 113  001C              #line 113 "c:\users\user\documents\htk_project\3652_adc_test_vib_1\BC3602.c"
 113  001C  2000     E  	call _SpiCSN_high
 113  001D  0003        	ret
 113  001E              _RFReadBuf2 endp
 113  001E              #line 113 "c:\users\user\documents\htk_project\3652_adc_test_vib_1\BC3602.c"
 113  001E              #pragma debug scope 1 1
 113  001E              public _WriteFIFO
 113  001E              #pragma debug scope 9 1
 121  001E              #line 121 "c:\users\user\documents\htk_project\3652_adc_test_vib_1\BC3602.c"
 121  0000              _WriteFIFO .section 'code'
 121  0000              _WriteFIFO proc
 121  0000              public _WriteFIFO_2
"File: BC3602.c      Assembler  Version HGASM0202      Page 7

 121  0000  0005[           local _WriteFIFO_2 db 5 dup(?)	; 3,2
            00
            ]
 121  0005              #pragma debug pointer 46 8 9
 121  0005              #pragma debug pointer 46 8 9
 121  0005              #pragma debug variable 46 9 _WriteFIFO_2+0 "rf_fifo"
 121  0005              #pragma debug variable 8 9 _WriteFIFO_2+2 "payload_length"
 123  0005              #line 123 "c:\users\user\documents\htk_project\3652_adc_test_vib_1\BC3602.c"
 123  0000  2000     E  	call _SpiCSN_low
 124  0001              #line 124 "c:\users\user\documents\htk_project\3652_adc_test_vib_1\BC3602.c"
 124  0001  0F11        	mov a,17
 124  0002  2000     E  	call _SpiWrite
 124  0003  0700     R  	mov a,_WriteFIFO_2[2]
 124  0004  0300     R  	add a,_WriteFIFO_2[0]
 124  0005  0080     R  	mov _WriteFIFO_2[3],a
 124  0006  1F05        	clr acc
 124  0007  1300     R  	adc a,_WriteFIFO_2[1]
 124  0008  0080     R  	mov _WriteFIFO_2[4],a
 124  0009              _L22:
 125  0009              #line 125 "c:\users\user\documents\htk_project\3652_adc_test_vib_1\BC3602.c"
 125  0009  0700     R  	mov a,_WriteFIFO_2[0]
 125  000A  0200     R  	sub a,_WriteFIFO_2[3]
 125  000B  0700     R  	mov a,_WriteFIFO_2[1]
 125  000C  1200     R  	sbc a,_WriteFIFO_2[4]
 125  000D  3F0A        	sz cz
 125  000E  2800     R  	jmp _L24
 127  000F              #line 127 "c:\users\user\documents\htk_project\3652_adc_test_vib_1\BC3602.c"
 127  000F  0700     R  	mov a,_WriteFIFO_2[0]
 127  0010  0083        	mov mp,a
 127  0011  0700     R  	mov a,_WriteFIFO_2[1]
 127  0012  0084        	mov sbp,a
 127  0013  2000     E  	call _Crom2Prom
 127  0014  2000     E  	call _SpiWrite
 128  0015              #line 128 "c:\users\user\documents\htk_project\3652_adc_test_vib_1\BC3602.c"
 128  0015  1480     R  	inc _WriteFIFO_2[0]
 128  0016  3D0A        	sz z
 128  0017  1480     R  	inc _WriteFIFO_2[1]
 128  0018  2800     R  	jmp _L22
 128  0019              _L24:
 130  0019              #line 130 "c:\users\user\documents\htk_project\3652_adc_test_vib_1\BC3602.c"
 130  0019  2000     E  	call _SpiCSN_high
 130  001A  0003        	ret
 130  001B              _WriteFIFO endp
 130  001B              #line 130 "c:\users\user\documents\htk_project\3652_adc_test_vib_1\BC3602.c"
 130  001B              #pragma debug scope 1 1
 130  001B              public _ReadFIFO
 130  001B              #pragma debug scope 10 1
 139  001B              #line 139 "c:\users\user\documents\htk_project\3652_adc_test_vib_1\BC3602.c"
 139  0000              _ReadFIFO .section 'code'
 139  0000              _ReadFIFO proc
 139  0000              public _ReadFIFO_2
 139  0000  0005[           local _ReadFIFO_2 db 5 dup(?)	; 3,2
            00
            ]
 139  0005              #pragma debug pointer 47 8 10
 139  0005              #pragma debug pointer 47 8 10
 139  0005              #pragma debug variable 47 10 _ReadFIFO_2+0 "rf_fifo"
 139  0005              #pragma debug variable 8 10 _ReadFIFO_2+2 "length"
 141  0005              #line 141 "c:\users\user\documents\htk_project\3652_adc_test_vib_1\BC3602.c"
 141  0000  2000     E  	call _SpiCSN_low
"File: BC3602.c      Assembler  Version HGASM0202      Page 8

 142  0001              #line 142 "c:\users\user\documents\htk_project\3652_adc_test_vib_1\BC3602.c"
 142  0001  0F91        	mov a,145
 142  0002  2000     E  	call _SpiWrite
 142  0003  0700     R  	mov a,_ReadFIFO_2[2]
 142  0004  0300     R  	add a,_ReadFIFO_2[0]
 142  0005  0080     R  	mov _ReadFIFO_2[3],a
 142  0006  1F05        	clr acc
 142  0007  1300     R  	adc a,_ReadFIFO_2[1]
 142  0008  0080     R  	mov _ReadFIFO_2[4],a
 142  0009              _L26:
 143  0009              #line 143 "c:\users\user\documents\htk_project\3652_adc_test_vib_1\BC3602.c"
 143  0009  0700     R  	mov a,_ReadFIFO_2[0]
 143  000A  0200     R  	sub a,_ReadFIFO_2[3]
 143  000B  0700     R  	mov a,_ReadFIFO_2[1]
 143  000C  1200     R  	sbc a,_ReadFIFO_2[4]
 143  000D  3F0A        	sz cz
 143  000E  2800     R  	jmp _L28
 145  000F              #line 145 "c:\users\user\documents\htk_project\3652_adc_test_vib_1\BC3602.c"
 145  000F  2000     E  	call _SpiRead
 145  0010  0080     E  	mov ra,a
 145  0011  0700     R  	mov a,_ReadFIFO_2[0]
 145  0012  0083        	mov mp,a
 145  0013  0700     R  	mov a,_ReadFIFO_2[1]
 145  0014  0084        	mov sbp,a
 145  0015  0700     E  	mov a,ra
 145  0016  0082        	mov ir,a
 146  0017              #line 146 "c:\users\user\documents\htk_project\3652_adc_test_vib_1\BC3602.c"
 146  0017  1480     R  	inc _ReadFIFO_2[0]
 146  0018  3D0A        	sz z
 146  0019  1480     R  	inc _ReadFIFO_2[1]
 146  001A  2800     R  	jmp _L26
 146  001B              _L28:
 148  001B              #line 148 "c:\users\user\documents\htk_project\3652_adc_test_vib_1\BC3602.c"
 148  001B  2000     E  	call _SpiCSN_high
 148  001C  0003        	ret
 148  001D              _ReadFIFO endp
 148  001D              #line 148 "c:\users\user\documents\htk_project\3652_adc_test_vib_1\BC3602.c"
 148  001D              #pragma debug scope 1 1
 148  001D              public _RFEnATR
 148  001D              #pragma debug scope 11 1
 157  001D              #line 157 "c:\users\user\documents\htk_project\3652_adc_test_vib_1\BC3602.c"
 157  0000              _RFEnATR .section 'code'
 157  0000              _RFEnATR proc
 159  0000              #line 159 "c:\users\user\documents\htk_project\3652_adc_test_vib_1\BC3602.c"
 159  0000  0F2B        	mov a,43
 159  0001  2000     R  	call _SpiReadRegCMD
 159  0002  0080     E  	mov ra,a
 161  0003              #line 161 "c:\users\user\documents\htk_project\3652_adc_test_vib_1\BC3602.c"
 161  0003  3000     E  	set ra.0
 161  0004  0700     E  	mov a,ra
 161  0005  0080     R  	mov _SpiWriteRegCMD_2[0],a
 161  0006  0F2B        	mov a,43
 161  0007  2000     R  	call _SpiWriteRegCMD
 161  0008  0003        	ret
 161  0009              _RFEnATR endp
 161  0009              #line 161 "c:\users\user\documents\htk_project\3652_adc_test_vib_1\BC3602.c"
 161  0009              #pragma debug scope 1 1
 161  0009              public _RFDisATR
 161  0009              #pragma debug scope 12 1
 170  0009              #line 170 "c:\users\user\documents\htk_project\3652_adc_test_vib_1\BC3602.c"
"File: BC3602.c      Assembler  Version HGASM0202      Page 9

 170  0000              _RFDisATR .section 'code'
 170  0000              _RFDisATR proc
 172  0000              #line 172 "c:\users\user\documents\htk_project\3652_adc_test_vib_1\BC3602.c"
 172  0000  0F2B        	mov a,43
 172  0001  2000     R  	call _SpiReadRegCMD
 172  0002  0080     E  	mov ra,a
 174  0003              #line 174 "c:\users\user\documents\htk_project\3652_adc_test_vib_1\BC3602.c"
 174  0003  3400     E  	clr ra.0
 174  0004  0700     E  	mov a,ra
 174  0005  0080     R  	mov _SpiWriteRegCMD_2[0],a
 174  0006  0F2B        	mov a,43
 174  0007  2000     R  	call _SpiWriteRegCMD
 174  0008  0003        	ret
 174  0009              _RFDisATR endp
 174  0009              #line 174 "c:\users\user\documents\htk_project\3652_adc_test_vib_1\BC3602.c"
 174  0009              #pragma debug scope 1 1
 174  0009              public _RFXtalReady
 174  0009              #pragma debug scope 13 1
 183  0009              #line 183 "c:\users\user\documents\htk_project\3652_adc_test_vib_1\BC3602.c"
 183  0000              _RFXtalReady .section 'code'
 183  0000              _RFXtalReady proc
 183  0000              _L33:
 187  0000              #line 187 "c:\users\user\documents\htk_project\3652_adc_test_vib_1\BC3602.c"
 187  0000  0F01        	mov a,1
 187  0001  2000     R  	call _SpiReadRegCMD
 187  0002  0080     E  	mov ra,a
 185  0003              #line 185 "c:\users\user\documents\htk_project\3652_adc_test_vib_1\BC3602.c"
 185  0003  3800     E  	snz ra.5
 185  0004  2800     R  	jmp _L33
 185  0005  0003        	ret
 185  0006              _RFXtalReady endp
 185  0006              #line 185 "c:\users\user\documents\htk_project\3652_adc_test_vib_1\BC3602.c"
 185  0006              #pragma debug scope 1 1
 185  0006              public _ResetLvRF
 185  0006              #pragma debug scope 14 1
 198  0006              #line 198 "c:\users\user\documents\htk_project\3652_adc_test_vib_1\BC3602.c"
 198  0000              _ResetLvRF .section 'code'
 198  0000              _ResetLvRF proc
 198  0000  00              local _ResetLvRF_2 db 1 dup(?)	; 0,1
 198  0000              _L36:
 202  0000              #line 202 "c:\users\user\documents\htk_project\3652_adc_test_vib_1\BC3602.c"
 202  0000  0F01        	mov a,1
 202  0001  2000     R  	call _SpiReadRegCMD
 202  0002  0080     E  	mov ra,a
 204  0003              #line 204 "c:\users\user\documents\htk_project\3652_adc_test_vib_1\BC3602.c"
 204  0003  3000     E  	set ra.0
 204  0004  0700     E  	mov a,ra
 204  0005  0080     R  	mov _SpiWriteRegCMD_2[0],a
 204  0006  0F01        	mov a,1
 204  0007  2000     R  	call _SpiWriteRegCMD
 205  0008              #line 205 "c:\users\user\documents\htk_project\3652_adc_test_vib_1\BC3602.c"
 205  0008  0F01        	mov a,1
 205  0009  2000     R  	call _SpiReadRegCMD
 205  000A  0080     R  	mov _ResetLvRF_2[0],a
 206  000B              #line 206 "c:\users\user\documents\htk_project\3652_adc_test_vib_1\BC3602.c"
 206  000B  3400     R  	clr _ResetLvRF_2[0].0
 207  000C              #line 207 "c:\users\user\documents\htk_project\3652_adc_test_vib_1\BC3602.c"
 207  000C  0700     R  	mov a,_ResetLvRF_2[0]
 207  000D  0080     R  	mov _SpiWriteRegCMD_2[0],a
 207  000E  0F01        	mov a,1
"File: BC3602.c      Assembler  Version HGASM0202      Page 10

 207  000F  2000     R  	call _SpiWriteRegCMD
 200  0010              #line 200 "c:\users\user\documents\htk_project\3652_adc_test_vib_1\BC3602.c"
 200  0010  1E00     R  	snz _ResetLvRF_2[0]
 200  0011  2800     R  	jmp _L36
 200  0012  0003        	ret
 200  0013              _ResetLvRF endp
 200  0013              #line 200 "c:\users\user\documents\htk_project\3652_adc_test_vib_1\BC3602.c"
 200  0013              #pragma debug scope 1 1
 200  0013              public _BC3602_Config
 200  0013              #pragma debug scope 15 1
 217  0013              #line 217 "c:\users\user\documents\htk_project\3652_adc_test_vib_1\BC3602.c"
 217  0000              _BC3602_Config .section 'code'
 217  0000              _BC3602_Config proc
 217  0000  0002[           local _BC3602_Config_2 db 2 dup(?)	; 0,2
            00
            ]
 217  0000  0F06        	mov a,6
 217  0001  0080     R  	mov _BC3602_Config_2[0],a
 220  0002              #line 220 "c:\users\user\documents\htk_project\3652_adc_test_vib_1\BC3602.c"
 220  0002  1F00     R  	clr _BC3602_Config_2[1]
 220  0003              _L39:
 220  0003              #line 220 "c:\users\user\documents\htk_project\3652_adc_test_vib_1\BC3602.c"
 220  0003  0700     R  	mov a,_BC3602_Config_2[1]
 220  0004  0080     E  	mov rb,a
 220  0005  1F00     E  	clr rc
 220  0006  340A        	clr c
 220  0007  1A80     E  	rlc rb
 220  0008  1A80     E  	rlc rc
 220  0009  0F00     R  	mov a,low offset _IRQIO_REGS_TALBE
 220  000A  0300     E  	add a,rb
 220  000B  0083        	mov mp,a
 220  000C  0F00     R  	mov a,high offset _IRQIO_REGS_TALBE
 220  000D  1300     E  	adc a,rc
 220  000E  0084        	mov sbp,a
 220  000F  2000     E  	call _Crom2Prom
 220  0010  0080     E  	mov rb,a
 220  0011  2000     E  	call _Crom2PromNext
 220  0012  0080     E  	mov rc,a
 220  0013  0700     E  	mov a,rb
 220  0014  0080     R  	mov _SpiWriteRegCMD_2[0],a
 220  0015  0700     E  	mov a,rc
 220  0016  2000     R  	call _SpiWriteRegCMD
 220  0017  1480     R  	inc _BC3602_Config_2[1]
 220  0018  1780     R  	sdz _BC3602_Config_2[0]
 220  0019  2800     R  	jmp _L39
 220  001A  0F0B        	mov a,11
 220  001B  0080     R  	mov _BC3602_Config_2[0],a
 220  001C  1F00     R  	clr _BC3602_Config_2[1]
 220  001D              _L41:
 222  001D              #line 222 "c:\users\user\documents\htk_project\3652_adc_test_vib_1\BC3602.c"
 222  001D  0700     R  	mov a,_BC3602_Config_2[1]
 222  001E  0080     E  	mov rb,a
 222  001F  1F00     E  	clr rc
 222  0020  340A        	clr c
 222  0021  1A80     E  	rlc rb
 222  0022  1A80     E  	rlc rc
 222  0023  0F00     R  	mov a,low offset _PACKET_REGS_TALBE
 222  0024  0300     E  	add a,rb
 222  0025  0083        	mov mp,a
 222  0026  0F00     R  	mov a,high offset _PACKET_REGS_TALBE
"File: BC3602.c      Assembler  Version HGASM0202      Page 11

 222  0027  1300     E  	adc a,rc
 222  0028  0084        	mov sbp,a
 222  0029  2000     E  	call _Crom2Prom
 222  002A  0080     E  	mov rb,a
 222  002B  2000     E  	call _Crom2PromNext
 222  002C  0080     E  	mov rc,a
 222  002D  0700     E  	mov a,rb
 222  002E  0080     R  	mov _SpiWriteRegCMD_2[0],a
 222  002F  0700     E  	mov a,rc
 222  0030  2000     R  	call _SpiWriteRegCMD
 222  0031  1480     R  	inc _BC3602_Config_2[1]
 222  0032  1780     R  	sdz _BC3602_Config_2[0]
 222  0033  2800     R  	jmp _L41
 224  0034              #line 224 "c:\users\user\documents\htk_project\3652_adc_test_vib_1\BC3602.c"
 224  0034  0F40        	mov a,64
 224  0035  0080     R  	mov _SpiWriteRegCMD_2[0],a
 224  0036  0F00        	mov a,0
 224  0037  2000     R  	call _SpiWriteRegCMD
 227  0038              #line 227 "c:\users\user\documents\htk_project\3652_adc_test_vib_1\BC3602.c"
 227  0038  0F20        	mov a,32
 227  0039  2000     R  	call _SpiWriteStrobeCMD
 227  003A  0F0B        	mov a,11
 227  003B  0080     R  	mov _BC3602_Config_2[0],a
 228  003C              #line 228 "c:\users\user\documents\htk_project\3652_adc_test_vib_1\BC3602.c"
 228  003C  1F00     R  	clr _BC3602_Config_2[1]
 228  003D              _L43:
 228  003D  0700     R  	mov a,_BC3602_Config_2[1]
 228  003E  0080     E  	mov rb,a
 228  003F  1F00     E  	clr rc
 228  0040  340A        	clr c
 228  0041  1A80     E  	rlc rb
 228  0042  1A80     E  	rlc rc
 228  0043  0F00     R  	mov a,low offset _BANK0_REGS_TALBE
 228  0044  0300     E  	add a,rb
 228  0045  0083        	mov mp,a
 228  0046  0F00     R  	mov a,high offset _BANK0_REGS_TALBE
 228  0047  1300     E  	adc a,rc
 228  0048  0084        	mov sbp,a
 228  0049  2000     E  	call _Crom2Prom
 228  004A  0080     E  	mov rb,a
 228  004B  2000     E  	call _Crom2PromNext
 228  004C  0080     E  	mov rc,a
 228  004D  0700     E  	mov a,rb
 228  004E  0080     R  	mov _SpiWriteRegCMD_2[0],a
 228  004F  0700     E  	mov a,rc
 228  0050  2000     R  	call _SpiWriteRegCMD
 228  0051  1480     R  	inc _BC3602_Config_2[1]
 228  0052  1780     R  	sdz _BC3602_Config_2[0]
 228  0053  2800     R  	jmp _L43
 230  0054              #line 230 "c:\users\user\documents\htk_project\3652_adc_test_vib_1\BC3602.c"
 230  0054  0F21        	mov a,33
 230  0055  2000     R  	call _SpiWriteStrobeCMD
 230  0056  0F04        	mov a,4
 230  0057  0080     R  	mov _BC3602_Config_2[0],a
 231  0058              #line 231 "c:\users\user\documents\htk_project\3652_adc_test_vib_1\BC3602.c"
 231  0058  1F00     R  	clr _BC3602_Config_2[1]
 231  0059              _L45:
 231  0059  0700     R  	mov a,_BC3602_Config_2[1]
 231  005A  0080     E  	mov rb,a
 231  005B  1F00     E  	clr rc
"File: BC3602.c      Assembler  Version HGASM0202      Page 12

 231  005C  340A        	clr c
 231  005D  1A80     E  	rlc rb
 231  005E  1A80     E  	rlc rc
 231  005F  0F00     R  	mov a,low offset _BANK1_REGS_TALBE
 231  0060  0300     E  	add a,rb
 231  0061  0083        	mov mp,a
 231  0062  0F00     R  	mov a,high offset _BANK1_REGS_TALBE
 231  0063  1300     E  	adc a,rc
 231  0064  0084        	mov sbp,a
 231  0065  2000     E  	call _Crom2Prom
 231  0066  0080     E  	mov rb,a
 231  0067  2000     E  	call _Crom2PromNext
 231  0068  0080     E  	mov rc,a
 231  0069  0700     E  	mov a,rb
 231  006A  0080     R  	mov _SpiWriteRegCMD_2[0],a
 231  006B  0700     E  	mov a,rc
 231  006C  2000     R  	call _SpiWriteRegCMD
 231  006D  1480     R  	inc _BC3602_Config_2[1]
 231  006E  1780     R  	sdz _BC3602_Config_2[0]
 231  006F  2800     R  	jmp _L45
 233  0070              #line 233 "c:\users\user\documents\htk_project\3652_adc_test_vib_1\BC3602.c"
 233  0070  0F22        	mov a,34
 233  0071  2000     R  	call _SpiWriteStrobeCMD
 233  0072  0F08        	mov a,8
 233  0073  0080     R  	mov _BC3602_Config_2[0],a
 234  0074              #line 234 "c:\users\user\documents\htk_project\3652_adc_test_vib_1\BC3602.c"
 234  0074  1F00     R  	clr _BC3602_Config_2[1]
 234  0075              _L47:
 234  0075  0700     R  	mov a,_BC3602_Config_2[1]
 234  0076  0080     E  	mov rb,a
 234  0077  1F00     E  	clr rc
 234  0078  340A        	clr c
 234  0079  1A80     E  	rlc rb
 234  007A  1A80     E  	rlc rc
 234  007B  0F00     R  	mov a,low offset _BANK2_REGS_TALBE
 234  007C  0300     E  	add a,rb
 234  007D  0083        	mov mp,a
 234  007E  0F00     R  	mov a,high offset _BANK2_REGS_TALBE
 234  007F  1300     E  	adc a,rc
 234  0080  0084        	mov sbp,a
 234  0081  2000     E  	call _Crom2Prom
 234  0082  0080     E  	mov rb,a
 234  0083  2000     E  	call _Crom2PromNext
 234  0084  0080     E  	mov rc,a
 234  0085  0700     E  	mov a,rb
 234  0086  0080     R  	mov _SpiWriteRegCMD_2[0],a
 234  0087  0700     E  	mov a,rc
 234  0088  2000     R  	call _SpiWriteRegCMD
 234  0089  1480     R  	inc _BC3602_Config_2[1]
 234  008A  1780     R  	sdz _BC3602_Config_2[0]
 234  008B  2800     R  	jmp _L47
 235  008C              #line 235 "c:\users\user\documents\htk_project\3652_adc_test_vib_1\BC3602.c"
 235  008C  0F20        	mov a,32
 235  008D  2000     R  	call _SpiWriteStrobeCMD
 235  008E  0003        	ret
 235  008F              _BC3602_Config endp
 235  008F              #line 235 "c:\users\user\documents\htk_project\3652_adc_test_vib_1\BC3602.c"
 235  008F              #pragma debug scope 1 1
 235  008F              public _RFWriteSyncword
 235  008F              #pragma debug scope 16 1
"File: BC3602.c      Assembler  Version HGASM0202      Page 13

 244  008F              #line 244 "c:\users\user\documents\htk_project\3652_adc_test_vib_1\BC3602.c"
 244  0000              _RFWriteSyncword .section 'code'
 244  0000              _RFWriteSyncword proc
 286  0000              #line 286 "c:\users\user\documents\htk_project\3652_adc_test_vib_1\BC3602.c"
 286  0000  0F78        	mov a,120
 286  0001  0080     R  	mov _mRFSync[0],a
 286  0002  0F56        	mov a,86
 286  0003  0080     R  	mov _mRFSync[1],a
 286  0004  0F34        	mov a,52
 286  0005  0080     R  	mov _mRFSync[2],a
 286  0006  0F12        	mov a,18
 286  0007  0080     R  	mov _mRFSync[3],a
 287  0008              #line 287 "c:\users\user\documents\htk_project\3652_adc_test_vib_1\BC3602.c"
 287  0008  0F00     R  	mov a,low offset _mRFSync
 287  0009  0080     R  	mov _RFWriteBuf_2[1],a
 287  000A  0F00     R  	mov a,high offset _mRFSync
 287  000B  0080     R  	mov _RFWriteBuf_2[2],a
 287  000C  0F04        	mov a,4
 287  000D  0080     R  	mov _RFWriteBuf_2[0],a
 287  000E  0F10        	mov a,16
 287  000F  2000     R  	call _RFWriteBuf
 287  0010  0003        	ret
 287  0011              _RFWriteSyncword endp
 287  0011              #line 287 "c:\users\user\documents\htk_project\3652_adc_test_vib_1\BC3602.c"
 287  0011              #pragma debug scope 1 1
 287  0011              public _RFReadSyncword
 287  0011              #pragma debug scope 17 1
 299  0011              #line 299 "c:\users\user\documents\htk_project\3652_adc_test_vib_1\BC3602.c"
 299  0000              _RFReadSyncword .section 'code'
 299  0000              _RFReadSyncword proc
 299  0000  0003        	ret
 299  0001              _RFReadSyncword endp
 299  0001              #line 299 "c:\users\user\documents\htk_project\3652_adc_test_vib_1\BC3602.c"
 299  0001              #pragma debug scope 1 1
 299  0001              public _RFSetDRPram
 299  0001              #pragma debug scope 18 1
 309  0001              #line 309 "c:\users\user\documents\htk_project\3652_adc_test_vib_1\BC3602.c"
 309  0000              _RFSetDRPram .section 'code'
 309  0000              _RFSetDRPram proc
 309  0000  0002[           local _RFSetDRPram_2 db 2 dup(?)	; 0,2
            00
            ]
 311  0002              #line 311 "c:\users\user\documents\htk_project\3652_adc_test_vib_1\BC3602.c"
 311  0000  0F20        	mov a,32
 311  0001  2000     R  	call _SpiWriteStrobeCMD
 311  0002  0F0B        	mov a,11
 311  0003  0080     R  	mov _RFSetDRPram_2[0],a
 312  0004              #line 312 "c:\users\user\documents\htk_project\3652_adc_test_vib_1\BC3602.c"
 312  0004  1F00     R  	clr _RFSetDRPram_2[1]
 312  0005              _L52:
 312  0005              #line 312 "c:\users\user\documents\htk_project\3652_adc_test_vib_1\BC3602.c"
 312  0005  0700     R  	mov a,_RFSetDRPram_2[1]
 312  0006  0080     E  	mov rb,a
 312  0007  1F00     E  	clr rc
 312  0008  340A        	clr c
 312  0009  1A80     E  	rlc rb
 312  000A  1A80     E  	rlc rc
 312  000B  0F00     R  	mov a,low offset _DM_REGS_TALBE
 312  000C  0300     E  	add a,rb
 312  000D  0083        	mov mp,a
"File: BC3602.c      Assembler  Version HGASM0202      Page 14

 312  000E  0F00     R  	mov a,high offset _DM_REGS_TALBE
 312  000F  1300     E  	adc a,rc
 312  0010  0084        	mov sbp,a
 312  0011  2000     E  	call _Crom2Prom
 312  0012  0080     E  	mov rb,a
 312  0013  2000     E  	call _Crom2PromNext
 312  0014  0080     E  	mov rc,a
 312  0015  0700     E  	mov a,rb
 312  0016  0080     R  	mov _SpiWriteRegCMD_2[0],a
 312  0017  0700     E  	mov a,rc
 312  0018  2000     R  	call _SpiWriteRegCMD
 312  0019  1480     R  	inc _RFSetDRPram_2[1]
 312  001A  1780     R  	sdz _RFSetDRPram_2[0]
 312  001B  2800     R  	jmp _L52
 313  001C              #line 313 "c:\users\user\documents\htk_project\3652_adc_test_vib_1\BC3602.c"
 313  001C  0F21        	mov a,33
 313  001D  2000     R  	call _SpiWriteStrobeCMD
 313  001E  0F13        	mov a,19
 313  001F  0080     R  	mov _RFSetDRPram_2[1],a
 314  0020              #line 314 "c:\users\user\documents\htk_project\3652_adc_test_vib_1\BC3602.c"
 314  0020  1F00     R  	clr _RFSetDRPram_2[0]
 314  0021              _L54:
 314  0021  0700     R  	mov a,_RFSetDRPram_2[0]
 314  0022  0080     E  	mov rb,a
 314  0023  1F00     E  	clr rc
 314  0024  340A        	clr c
 314  0025  1A80     E  	rlc rb
 314  0026  1A80     E  	rlc rc
 314  0027  0F00     R  	mov a,low offset _FCF_REGS_TALBE
 314  0028  0300     E  	add a,rb
 314  0029  0083        	mov mp,a
 314  002A  0F00     R  	mov a,high offset _FCF_REGS_TALBE
 314  002B  1300     E  	adc a,rc
 314  002C  0084        	mov sbp,a
 314  002D  2000     E  	call _Crom2Prom
 314  002E  0080     E  	mov rb,a
 314  002F  2000     E  	call _Crom2PromNext
 314  0030  0080     E  	mov rc,a
 314  0031  0700     E  	mov a,rb
 314  0032  0080     R  	mov _SpiWriteRegCMD_2[0],a
 314  0033  0700     E  	mov a,rc
 314  0034  2000     R  	call _SpiWriteRegCMD
 314  0035  1480     R  	inc _RFSetDRPram_2[0]
 314  0036  1780     R  	sdz _RFSetDRPram_2[1]
 314  0037  2800     R  	jmp _L54
 315  0038              #line 315 "c:\users\user\documents\htk_project\3652_adc_test_vib_1\BC3602.c"
 315  0038  0F22        	mov a,34
 315  0039  2000     R  	call _SpiWriteStrobeCMD
 316  003A              #line 316 "c:\users\user\documents\htk_project\3652_adc_test_vib_1\BC3602.c"
 316  003A  0F44        	mov a,68
 316  003B  0080     R  	mov _SpiWriteRegCMD_2[0],a
 316  003C  0F2F        	mov a,47
 316  003D  2000     R  	call _SpiWriteRegCMD
 316  003E  0F03        	mov a,3
 316  003F  0080     R  	mov _SpiWriteRegCMD_2[0],a
 316  0040  0F26        	mov a,38
 316  0041  2000     R  	call _SpiWriteRegCMD
 316  0042  0F88        	mov a,136
 316  0043  0080     R  	mov _SpiWriteRegCMD_2[0],a
 316  0044  0F27        	mov a,39
"File: BC3602.c      Assembler  Version HGASM0202      Page 15

 316  0045  2000     R  	call _SpiWriteRegCMD
 317  0046              #line 317 "c:\users\user\documents\htk_project\3652_adc_test_vib_1\BC3602.c"
 317  0046  0F20        	mov a,32
 317  0047  2000     R  	call _SpiWriteStrobeCMD
 317  0048  0003        	ret
 317  0049              _RFSetDRPram endp
 317  0049              #line 317 "c:\users\user\documents\htk_project\3652_adc_test_vib_1\BC3602.c"
 317  0049              #pragma debug scope 1 1
 317  0049              public _RFWriteFreqTABLE
 317  0049              #pragma debug scope 19 1
 326  0049              #line 326 "c:\users\user\documents\htk_project\3652_adc_test_vib_1\BC3602.c"
 326  0000              _RFWriteFreqTABLE .section 'code'
 326  0000              _RFWriteFreqTABLE proc
 326  0000  0002[           local _RFWriteFreqTABLE_2 db 2 dup(?)	; 0,2
            00
            ]
 328  0002              #line 328 "c:\users\user\documents\htk_project\3652_adc_test_vib_1\BC3602.c"
 328  0000  0F20        	mov a,32
 328  0001  2000     R  	call _SpiReadRegCMD
 328  0002  0080     E  	mov ra,a
 329  0003              #line 329 "c:\users\user\documents\htk_project\3652_adc_test_vib_1\BC3602.c"
 329  0003  0F9F        	mov a,159
 329  0004  0680     E  	andm a,ra
 330  0005              #line 330 "c:\users\user\documents\htk_project\3652_adc_test_vib_1\BC3602.c"
 330  0005  3000     E  	set ra.5
 330  0006  0700     E  	mov a,ra
 330  0007  0080     R  	mov _SpiWriteRegCMD_2[0],a
 330  0008  0F20        	mov a,32
 330  0009  2000     R  	call _SpiWriteRegCMD
 330  000A  0F04        	mov a,4
 330  000B  0080     R  	mov _RFWriteFreqTABLE_2[0],a
 332  000C              #line 332 "c:\users\user\documents\htk_project\3652_adc_test_vib_1\BC3602.c"
 332  000C  1F00     R  	clr _RFWriteFreqTABLE_2[1]
 332  000D              _L57:
 332  000D              #line 332 "c:\users\user\documents\htk_project\3652_adc_test_vib_1\BC3602.c"
 332  000D  0700     R  	mov a,_RFWriteFreqTABLE_2[1]
 332  000E  0080     E  	mov rb,a
 332  000F  1F00     E  	clr rc
 332  0010  340A        	clr c
 332  0011  1A80     E  	rlc rb
 332  0012  1A80     E  	rlc rc
 332  0013  0F00     R  	mov a,low offset _Frequency_REGS_TALBE
 332  0014  0300     E  	add a,rb
 332  0015  0083        	mov mp,a
 332  0016  0F00     R  	mov a,high offset _Frequency_REGS_TALBE
 332  0017  1300     E  	adc a,rc
 332  0018  0084        	mov sbp,a
 332  0019  2000     E  	call _Crom2Prom
 332  001A  0080     E  	mov rb,a
 332  001B  2000     E  	call _Crom2PromNext
 332  001C  0080     E  	mov rc,a
 332  001D  0700     E  	mov a,rb
 332  001E  0080     R  	mov _SpiWriteRegCMD_2[0],a
 332  001F  0700     E  	mov a,rc
 332  0020  2000     R  	call _SpiWriteRegCMD
 332  0021  1480     R  	inc _RFWriteFreqTABLE_2[1]
 332  0022  1780     R  	sdz _RFWriteFreqTABLE_2[0]
 332  0023  2800     R  	jmp _L57
 332  0024  0003        	ret
 332  0025              _RFWriteFreqTABLE endp
"File: BC3602.c      Assembler  Version HGASM0202      Page 16

 332  0025              #line 332 "c:\users\user\documents\htk_project\3652_adc_test_vib_1\BC3602.c"
 332  0025              #pragma debug scope 1 1
 332  0025              public _RFWriteFreq
 332  0025              #pragma debug scope 20 1
 341  0025              #line 341 "c:\users\user\documents\htk_project\3652_adc_test_vib_1\BC3602.c"
 341  0000              _RFWriteFreq .section 'code'
 341  0000              _RFWriteFreq proc
 341  0000              public _RFWriteFreq_2
 341  0000  0004[           local _RFWriteFreq_2 db 4 dup(?)	; 2,2
            00
            ]
 341  0004              #pragma debug pointer 48 8 20
 341  0004              #pragma debug pointer 48 8 20
 341  0004              #pragma debug variable 48 20 _RFWriteFreq_2+0 "buffer"
 344  0004              #line 344 "c:\users\user\documents\htk_project\3652_adc_test_vib_1\BC3602.c"
 344  0000  0F20        	mov a,32
 344  0001  2000     R  	call _SpiReadRegCMD
 344  0002  0080     E  	mov ra,a
 345  0003              #line 345 "c:\users\user\documents\htk_project\3652_adc_test_vib_1\BC3602.c"
 345  0003  0F9F        	mov a,159
 345  0004  0680     E  	andm a,ra
 346  0005              #line 346 "c:\users\user\documents\htk_project\3652_adc_test_vib_1\BC3602.c"
 346  0005  3000     E  	set ra.5
 346  0006  0700     E  	mov a,ra
 346  0007  0080     R  	mov _SpiWriteRegCMD_2[0],a
 346  0008  0F20        	mov a,32
 346  0009  2000     R  	call _SpiWriteRegCMD
 346  000A  1F00     R  	clr _RFWriteFreq_2[2]
 346  000B  1F00     R  	clr _RFWriteFreq_2[3]
 346  000C              _L60:
 346  000C  340A        	clr c
 346  000D  1A00     R  	rlca _RFWriteFreq_2[2]
 346  000E  0080     E  	mov rb,a
 346  000F  1A00     R  	rlca _RFWriteFreq_2[3]
 346  0010  0080     E  	mov rc,a
 350  0011              #line 350 "c:\users\user\documents\htk_project\3652_adc_test_vib_1\BC3602.c"
 350  0011  0F00     R  	mov a,low offset _Frequency_REGS_TALBE
 350  0012  0300     E  	add a,rb
 350  0013  0083        	mov mp,a
 350  0014  0F00     R  	mov a,high offset _Frequency_REGS_TALBE
 350  0015  1300     E  	adc a,rc
 350  0016  0084        	mov sbp,a
 350  0017  2000     E  	call _Crom2Prom
 350  0018  0080     E  	mov rb,a
 350  0019  2000     E  	call _Crom2PromNext
 350  001A  0080     E  	mov rc,a
 350  001B  0700     R  	mov a,_RFWriteFreq_2[2]
 350  001C  0300     R  	add a,_RFWriteFreq_2[0]
 350  001D  0083        	mov mp,a
 350  001E  0700     R  	mov a,_RFWriteFreq_2[3]
 350  001F  1300     R  	adc a,_RFWriteFreq_2[1]
 350  0020  0084        	mov sbp,a
 350  0021  2000     E  	call _Crom2Prom
 350  0022  0080     R  	mov _SpiWriteRegCMD_2[0],a
 350  0023  0700     E  	mov a,rc
 350  0024  2000     R  	call _SpiWriteRegCMD
 350  0025  1480     R  	inc _RFWriteFreq_2[2]
 350  0026  3D0A        	sz z
 350  0027  1480     R  	inc _RFWriteFreq_2[3]
 348  0028              #line 348 "c:\users\user\documents\htk_project\3652_adc_test_vib_1\BC3602.c"
"File: BC3602.c      Assembler  Version HGASM0202      Page 17

 348  0028  0700     R  	mov a,_RFWriteFreq_2[2]
 348  0029  0C04        	xor a,4
 348  002A  0500     R  	or a,_RFWriteFreq_2[3]
 348  002B  390A        	snz z
 348  002C  2800     R  	jmp _L60
 348  002D  0003        	ret
 348  002E              _RFWriteFreq endp
 348  002E              #line 348 "c:\users\user\documents\htk_project\3652_adc_test_vib_1\BC3602.c"
 348  002E              #pragma debug scope 1 1
 348  002E              public _RFSetPower
 348  002E              #pragma debug scope 21 1
 361  002E              #line 361 "c:\users\user\documents\htk_project\3652_adc_test_vib_1\BC3602.c"
 361  0000              _RFSetPower .section 'code'
 361  0000              _RFSetPower proc
 361  0000              public _RFSetPower_2
 361  0000  0002[           local _RFSetPower_2 db 2 dup(?)	; 1,1
            00
            ]
 361  0000  0080     E  	mov rb,a
 361  0001  0080     R  	mov _RFSetPower_2[1],a
 361  0002              #pragma debug variable 8 21 _RFSetPower_2+1 "band_sel"
 361  0002              #pragma debug variable 8 21 _RFSetPower_2+0 "power"
 362  0002              #line 362 "c:\users\user\documents\htk_project\3652_adc_test_vib_1\BC3602.c"
 362  0002  1F00     E  	clr rc
 362  0003  340A        	clr c
 362  0004  1A00     E  	rlca rb
 362  0005  0080     E  	mov rd,a
 362  0006  1A00     E  	rlca rc
 362  0007  0080     E  	mov re,a
 362  0008  340A        	clr c
 362  0009  1A80     E  	rlc rd
 362  000A  1A80     E  	rlc re
 362  000B  0700     E  	mov a,rd
 362  000C  0380     E  	addm a,rb
 362  000D  0700     E  	mov a,re
 362  000E  1380     E  	adcm a,rc
 362  000F  0700     R  	mov a,_RFSetPower_2[0]
 362  0010  0380     E  	addm a,rb
 362  0011  3C0A        	sz c
 362  0012  1480     E  	inc rc
 362  0013  0F00     R  	mov a,low offset _TxPowerValue
 362  0014  0300     E  	add a,rb
 362  0015  0083        	mov mp,a
 362  0016  0F00     R  	mov a,high offset _TxPowerValue
 362  0017  1300     E  	adc a,rc
 362  0018  0084        	mov sbp,a
 362  0019  2000     E  	call _Crom2Prom
 362  001A  0080     R  	mov _SpiWriteRegCMD_2[0],a
 362  001B  0F3F        	mov a,63
 362  001C  2000     R  	call _SpiWriteRegCMD
 362  001D  0003        	ret
 362  001E              _RFSetPower endp
 362  001E              #line 362 "c:\users\user\documents\htk_project\3652_adc_test_vib_1\BC3602.c"
 362  001E              #pragma debug scope 1 1
 362  001E              public _RFCalibration
 362  001E              #pragma debug scope 22 1
 371  001E              #line 371 "c:\users\user\documents\htk_project\3652_adc_test_vib_1\BC3602.c"
 371  0000              _RFCalibration .section 'code'
 371  0000              _RFCalibration proc
 373  0000              #line 373 "c:\users\user\documents\htk_project\3652_adc_test_vib_1\BC3602.c"
"File: BC3602.c      Assembler  Version HGASM0202      Page 18

 373  0000  0F20        	mov a,32
 373  0001  2000     R  	call _SpiReadRegCMD
 373  0002  0080     E  	mov ra,a
 375  0003              #line 375 "c:\users\user\documents\htk_project\3652_adc_test_vib_1\BC3602.c"
 375  0003  3000     E  	set ra.3
 375  0004  0700     E  	mov a,ra
 375  0005  0080     R  	mov _SpiWriteRegCMD_2[0],a
 375  0006  0F20        	mov a,32
 375  0007  2000     R  	call _SpiWriteRegCMD
 375  0008              _L64:
 378  0008              #line 378 "c:\users\user\documents\htk_project\3652_adc_test_vib_1\BC3602.c"
 378  0008  0F20        	mov a,32
 378  0009  2000     R  	call _SpiReadRegCMD
 378  000A  0080     E  	mov ra,a
 376  000B              #line 376 "c:\users\user\documents\htk_project\3652_adc_test_vib_1\BC3602.c"
 376  000B  3C00     E  	sz ra.3
 376  000C  2800     R  	jmp _L64
 376  000D  0003        	ret
 376  000E              _RFCalibration endp
 376  000E              #line 376 "c:\users\user\documents\htk_project\3652_adc_test_vib_1\BC3602.c"
 376  000E              #pragma debug scope 1 1
 376  000E              public _RFGetClrRFIrq
 376  000E              #pragma debug scope 23 1
 389  000E              #line 389 "c:\users\user\documents\htk_project\3652_adc_test_vib_1\BC3602.c"
 389  0000              _RFGetClrRFIrq .section 'code'
 389  0000              _RFGetClrRFIrq proc
 389  0000  00              local _RFGetClrRFIrq_2 db 1 dup(?)	; 0,1
 389  0001              #pragma debug variable 8 23 _RFGetClrRFIrq_2+0 "irq"
 392  0001              #line 392 "c:\users\user\documents\htk_project\3652_adc_test_vib_1\BC3602.c"
 392  0000  0F04        	mov a,4
 392  0001  2000     R  	call _SpiReadRegCMD
 392  0002  0080     R  	mov _RFGetClrRFIrq_2[0],a
 393  0003              #line 393 "c:\users\user\documents\htk_project\3652_adc_test_vib_1\BC3602.c"
 393  0003  0080     R  	mov _SpiWriteRegCMD_2[0],a
 393  0004  0F04        	mov a,4
 393  0005  2000     R  	call _SpiWriteRegCMD
 396  0006              #line 396 "c:\users\user\documents\htk_project\3652_adc_test_vib_1\BC3602.c"
 396  0006  0700     R  	mov a,_RFGetClrRFIrq_2[0]
 396  0007  0003        	ret
 396  0008              _RFGetClrRFIrq endp
 396  0008              #line 396 "c:\users\user\documents\htk_project\3652_adc_test_vib_1\BC3602.c"
 396  0008              #pragma debug scope 1 1
 396  0008              public _ResetTXFIFO
 396  0008              #pragma debug scope 24 1
 404  0008              #line 404 "c:\users\user\documents\htk_project\3652_adc_test_vib_1\BC3602.c"
 404  0000              _ResetTXFIFO .section 'code'
 404  0000              _ResetTXFIFO proc
 405  0000              #line 405 "c:\users\user\documents\htk_project\3652_adc_test_vib_1\BC3602.c"
 405  0000  0F09        	mov a,9
 405  0001  2000     R  	call _SpiWriteStrobeCMD
 405  0002  0003        	ret
 405  0003              _ResetTXFIFO endp
 405  0003              #line 405 "c:\users\user\documents\htk_project\3652_adc_test_vib_1\BC3602.c"
 405  0003              #pragma debug scope 1 1
 405  0003              public _ResetRXFIFO
 405  0003              #pragma debug scope 25 1
 409  0003              #line 409 "c:\users\user\documents\htk_project\3652_adc_test_vib_1\BC3602.c"
 409  0000              _ResetRXFIFO .section 'code'
 409  0000              _ResetRXFIFO proc
 410  0000              #line 410 "c:\users\user\documents\htk_project\3652_adc_test_vib_1\BC3602.c"
"File: BC3602.c      Assembler  Version HGASM0202      Page 19

 410  0000  0F89        	mov a,137
 410  0001  2000     R  	call _SpiWriteStrobeCMD
 410  0002  0003        	ret
 410  0003              _ResetRXFIFO endp
 410  0003              #line 410 "c:\users\user\documents\htk_project\3652_adc_test_vib_1\BC3602.c"
 410  0003              #pragma debug scope 1 1
 410  0003              public _EntryLightSleep
 410  0003              #pragma debug scope 26 1
 419  0003              #line 419 "c:\users\user\documents\htk_project\3652_adc_test_vib_1\BC3602.c"
 419  0000              _EntryLightSleep .section 'code'
 419  0000              _EntryLightSleep proc
 420  0000              #line 420 "c:\users\user\documents\htk_project\3652_adc_test_vib_1\BC3602.c"
 420  0000  0F0C        	mov a,12
 420  0001  2000     R  	call _SpiWriteStrobeCMD
 420  0002  0003        	ret
 420  0003              _EntryLightSleep endp
 420  0003              #line 420 "c:\users\user\documents\htk_project\3652_adc_test_vib_1\BC3602.c"
 420  0003              #pragma debug scope 1 1
 420  0003              public _EntryDeepSleep
 420  0003              #pragma debug scope 27 1
 429  0003              #line 429 "c:\users\user\documents\htk_project\3652_adc_test_vib_1\BC3602.c"
 429  0000              _EntryDeepSleep .section 'code'
 429  0000              _EntryDeepSleep proc
 430  0000              #line 430 "c:\users\user\documents\htk_project\3652_adc_test_vib_1\BC3602.c"
 430  0000  0F0A        	mov a,10
 430  0001  2000     R  	call _SpiWriteStrobeCMD
 430  0002  0003        	ret
 430  0003              _EntryDeepSleep endp
 430  0003              #line 430 "c:\users\user\documents\htk_project\3652_adc_test_vib_1\BC3602.c"
 430  0003              #pragma debug scope 1 1
 430  0003              public _EntryIdleMode
 430  0003              #pragma debug scope 28 1
 439  0003              #line 439 "c:\users\user\documents\htk_project\3652_adc_test_vib_1\BC3602.c"
 439  0000              _EntryIdleMode .section 'code'
 439  0000              _EntryIdleMode proc
 440  0000              #line 440 "c:\users\user\documents\htk_project\3652_adc_test_vib_1\BC3602.c"
 440  0000  0F0B        	mov a,11
 440  0001  2000     R  	call _SpiWriteStrobeCMD
 440  0002  0003        	ret
 440  0003              _EntryIdleMode endp
 440  0003              #line 440 "c:\users\user\documents\htk_project\3652_adc_test_vib_1\BC3602.c"
 440  0003              #pragma debug scope 1 1
 440  0003              public _LircCalibration
 440  0003              #pragma debug scope 29 1
 449  0003              #line 449 "c:\users\user\documents\htk_project\3652_adc_test_vib_1\BC3602.c"
 449  0000              _LircCalibration .section 'code'
 449  0000              _LircCalibration proc
 451  0000              #line 451 "c:\users\user\documents\htk_project\3652_adc_test_vib_1\BC3602.c"
 451  0000  0F3E        	mov a,62
 451  0001  2000     R  	call _SpiReadRegCMD
 451  0002  0080     E  	mov ra,a
 453  0003              #line 453 "c:\users\user\documents\htk_project\3652_adc_test_vib_1\BC3602.c"
 453  0003  0700     E  	mov a,ra
 453  0004  0D81        	or a,129
 453  0005  0080     R  	mov _SpiWriteRegCMD_2[0],a
 453  0006  0F3E        	mov a,62
 453  0007  2000     R  	call _SpiWriteRegCMD
 453  0008              _L73:
 456  0008              #line 456 "c:\users\user\documents\htk_project\3652_adc_test_vib_1\BC3602.c"
 456  0008  0F3E        	mov a,62
"File: BC3602.c      Assembler  Version HGASM0202      Page 20

 456  0009  2000     R  	call _SpiReadRegCMD
 456  000A  0080     E  	mov ra,a
 454  000B              #line 454 "c:\users\user\documents\htk_project\3652_adc_test_vib_1\BC3602.c"
 454  000B  3C00     E  	sz ra.7
 454  000C  2800     R  	jmp _L73
 454  000D  0003        	ret
 454  000E              _LircCalibration endp
 454  000E              #line 454 "c:\users\user\documents\htk_project\3652_adc_test_vib_1\BC3602.c"
 454  000E              #pragma debug scope 1 1
 454  000E              ___intc0 equ [17]
 454  000E              ___ifs equ [81]
 454  000E              public _RF_Init
 454  000E              #pragma debug scope 30 1
 467  000E              #line 467 "c:\users\user\documents\htk_project\3652_adc_test_vib_1\BC3602.c"
 467  0000              _RF_Init .section 'code'
 467  0000              _RF_Init proc
 468  0000              #line 468 "c:\users\user\documents\htk_project\3652_adc_test_vib_1\BC3602.c"
 468  0000  2000     E  	call _SpiIOInti
 470  0001              #line 470 "c:\users\user\documents\htk_project\3652_adc_test_vib_1\BC3602.c"
 470  0001  0F0C        	mov a,12
 470  0002  2000     R  	call _SpiWriteStrobeCMD
 473  0003              #line 473 "c:\users\user\documents\htk_project\3652_adc_test_vib_1\BC3602.c"
 473  0003  2000     R  	call _ResetLvRF
 474  0004              #line 474 "c:\users\user\documents\htk_project\3652_adc_test_vib_1\BC3602.c"
 474  0004  0F08        	mov a,8
 474  0005  2000     R  	call _SpiWriteStrobeCMD
 477  0006              #line 477 "c:\users\user\documents\htk_project\3652_adc_test_vib_1\BC3602.c"
 477  0006  3411        	clr [17].0
 478  0007              #line 478 "c:\users\user\documents\htk_project\3652_adc_test_vib_1\BC3602.c"
 478  0007  2000     R  	call _BC3602_Config
 479  0008              #line 479 "c:\users\user\documents\htk_project\3652_adc_test_vib_1\BC3602.c"
 479  0008  2000     R  	call _RFWriteSyncword
 481  0009              #line 481 "c:\users\user\documents\htk_project\3652_adc_test_vib_1\BC3602.c"
 481  0009  2000     R  	call _RFWriteFreqTABLE
 482  000A              #line 482 "c:\users\user\documents\htk_project\3652_adc_test_vib_1\BC3602.c"
 482  000A  2000     R  	call _RFSetDRPram
 483  000B              #line 483 "c:\users\user\documents\htk_project\3652_adc_test_vib_1\BC3602.c"
 483  000B  0F02        	mov a,2
 483  000C  0080     R  	mov _RFSetPower_2[0],a
 483  000D  0F01        	mov a,1
 483  000E  2000     R  	call _RFSetPower
 484  000F              #line 484 "c:\users\user\documents\htk_project\3652_adc_test_vib_1\BC3602.c"
 484  000F  3011        	set [17].0
 486  0010              #line 486 "c:\users\user\documents\htk_project\3652_adc_test_vib_1\BC3602.c"
 486  0010  2000     R  	call _RFXtalReady
 487  0011              #line 487 "c:\users\user\documents\htk_project\3652_adc_test_vib_1\BC3602.c"
 487  0011  2000     R  	call _RFCalibration
 488  0012              #line 488 "c:\users\user\documents\htk_project\3652_adc_test_vib_1\BC3602.c"
 488  0012  2000     R  	call _LircCalibration
 489  0013              #line 489 "c:\users\user\documents\htk_project\3652_adc_test_vib_1\BC3602.c"
 489  0013  2000     R  	call _RFGetClrRFIrq
 490  0014              #line 490 "c:\users\user\documents\htk_project\3652_adc_test_vib_1\BC3602.c"
 490  0014  3251        	set [81].4
 491  0015              #line 491 "c:\users\user\documents\htk_project\3652_adc_test_vib_1\BC3602.c"
 491  0015  0F0A        	mov a,10
 491  0016  2000     R  	call _SpiWriteStrobeCMD
 491  0017  0003        	ret
 491  0018              _RF_Init endp
 491  0018              #line 491 "c:\users\user\documents\htk_project\3652_adc_test_vib_1\BC3602.c"
 491  0018              #pragma debug scope 1 1
"File: BC3602.c      Assembler  Version HGASM0202      Page 21

 491  0018              public _RF_TxCarrier
 491  0018              #pragma debug scope 31 1
 500  0018              #line 500 "c:\users\user\documents\htk_project\3652_adc_test_vib_1\BC3602.c"
 500  0000              _RF_TxCarrier .section 'code'
 500  0000              _RF_TxCarrier proc
 500  0000  00              local _RF_TxCarrier_2 db 1 dup(?)	; 0,1
 503  0001              #line 503 "c:\users\user\documents\htk_project\3652_adc_test_vib_1\BC3602.c"
 503  0000  0F00        	mov a,0
 503  0001  2000     R  	call _SpiReadRegCMD
 503  0002  0080     E  	mov ra,a
 505  0003              #line 505 "c:\users\user\documents\htk_project\3652_adc_test_vib_1\BC3602.c"
 505  0003  3000     E  	set ra.4
 505  0004  0700     E  	mov a,ra
 505  0005  0080     R  	mov _SpiWriteRegCMD_2[0],a
 505  0006  0F00        	mov a,0
 505  0007  2000     R  	call _SpiWriteRegCMD
 507  0008              #line 507 "c:\users\user\documents\htk_project\3652_adc_test_vib_1\BC3602.c"
 507  0008  0F21        	mov a,33
 507  0009  2000     R  	call _SpiWriteStrobeCMD
 508  000A              #line 508 "c:\users\user\documents\htk_project\3652_adc_test_vib_1\BC3602.c"
 508  000A  1F00     R  	clr _SpiWriteRegCMD_2[0]
 508  000B  0F2D        	mov a,45
 508  000C  2000     R  	call _SpiWriteRegCMD
 509  000D              #line 509 "c:\users\user\documents\htk_project\3652_adc_test_vib_1\BC3602.c"
 509  000D  1F00     R  	clr _SpiWriteRegCMD_2[0]
 509  000E  0F2E        	mov a,46
 509  000F  2000     R  	call _SpiWriteRegCMD
 510  0010              #line 510 "c:\users\user\documents\htk_project\3652_adc_test_vib_1\BC3602.c"
 510  0010  0F20        	mov a,32
 510  0011  2000     R  	call _SpiWriteStrobeCMD
 512  0012              #line 512 "c:\users\user\documents\htk_project\3652_adc_test_vib_1\BC3602.c"
 512  0012  0F20        	mov a,32
 512  0013  2000     R  	call _SpiWriteStrobeCMD
 513  0014              #line 513 "c:\users\user\documents\htk_project\3652_adc_test_vib_1\BC3602.c"
 513  0014  0F0C        	mov a,12
 513  0015  2000     R  	call _SpiWriteStrobeCMD
 514  0016              #line 514 "c:\users\user\documents\htk_project\3652_adc_test_vib_1\BC3602.c"
 514  0016  2000     R  	call _RFXtalReady
 516  0017              #line 516 "c:\users\user\documents\htk_project\3652_adc_test_vib_1\BC3602.c"
 516  0017  0F20        	mov a,32
 516  0018  2000     R  	call _SpiReadRegCMD
 516  0019  0080     R  	mov _RF_TxCarrier_2[0],a
 518  001A              #line 518 "c:\users\user\documents\htk_project\3652_adc_test_vib_1\BC3602.c"
 518  001A  0700     R  	mov a,_RF_TxCarrier_2[0]
 518  001B  0D03        	or a,3
 518  001C  0080     R  	mov _SpiWriteRegCMD_2[0],a
 518  001D  0F20        	mov a,32
 518  001E  2000     R  	call _SpiWriteRegCMD
 520  001F              #line 520 "c:\users\user\documents\htk_project\3652_adc_test_vib_1\BC3602.c"
 520  001F  0700     R  	mov a,_RF_TxCarrier_2[0]
 520  0020  0D07        	or a,7
 520  0021  0080     R  	mov _SpiWriteRegCMD_2[0],a
 520  0022  0F20        	mov a,32
 520  0023  2000     R  	call _SpiWriteRegCMD
 520  0024  0003        	ret
 520  0025              _RF_TxCarrier endp
 520  0025              #line 520 "c:\users\user\documents\htk_project\3652_adc_test_vib_1\BC3602.c"
 520  0025              #pragma debug scope 1 1
 520  0025              public _RF_RxBER
 520  0025              #pragma debug scope 32 1
"File: BC3602.c      Assembler  Version HGASM0202      Page 22

 529  0025              #line 529 "c:\users\user\documents\htk_project\3652_adc_test_vib_1\BC3602.c"
 529  0000              _RF_RxBER .section 'code'
 529  0000              _RF_RxBER proc
 529  0000  00              local _RF_RxBER_2 db 1 dup(?)	; 0,1
 532  0001              #line 532 "c:\users\user\documents\htk_project\3652_adc_test_vib_1\BC3602.c"
 532  0000  0F20        	mov a,32
 532  0001  2000     R  	call _SpiWriteStrobeCMD
 533  0002              #line 533 "c:\users\user\documents\htk_project\3652_adc_test_vib_1\BC3602.c"
 533  0002  0F00        	mov a,0
 533  0003  2000     R  	call _SpiReadRegCMD
 533  0004  0080     E  	mov ra,a
 535  0005              #line 535 "c:\users\user\documents\htk_project\3652_adc_test_vib_1\BC3602.c"
 535  0005  3000     E  	set ra.4
 535  0006  0700     E  	mov a,ra
 535  0007  0080     R  	mov _SpiWriteRegCMD_2[0],a
 535  0008  0F00        	mov a,0
 535  0009  2000     R  	call _SpiWriteRegCMD
 536  000A              #line 536 "c:\users\user\documents\htk_project\3652_adc_test_vib_1\BC3602.c"
 536  000A  0F0C        	mov a,12
 536  000B  2000     R  	call _SpiReadRegCMD
 536  000C  0080     E  	mov ra,a
 538  000D              #line 538 "c:\users\user\documents\htk_project\3652_adc_test_vib_1\BC3602.c"
 538  000D  0700     E  	mov a,ra
 538  000E  0EFC        	and a,252
 538  000F  0080     R  	mov _SpiWriteRegCMD_2[0],a
 538  0010  0F0C        	mov a,12
 538  0011  2000     R  	call _SpiWriteRegCMD
 540  0012              #line 540 "c:\users\user\documents\htk_project\3652_adc_test_vib_1\BC3602.c"
 540  0012  0F40        	mov a,64
 540  0013  0080     R  	mov _SpiWriteRegCMD_2[0],a
 540  0014  0F07        	mov a,7
 540  0015  2000     R  	call _SpiWriteRegCMD
 541  0016              #line 541 "c:\users\user\documents\htk_project\3652_adc_test_vib_1\BC3602.c"
 541  0016  0F08        	mov a,8
 541  0017  2000     R  	call _SpiReadRegCMD
 541  0018  0080     E  	mov ra,a
 543  0019              #line 543 "c:\users\user\documents\htk_project\3652_adc_test_vib_1\BC3602.c"
 543  0019  3000     E  	set ra.4
 543  001A  0700     E  	mov a,ra
 543  001B  0080     R  	mov _SpiWriteRegCMD_2[0],a
 543  001C  0F08        	mov a,8
 543  001D  2000     R  	call _SpiWriteRegCMD
 545  001E              #line 545 "c:\users\user\documents\htk_project\3652_adc_test_vib_1\BC3602.c"
 545  001E  0F0C        	mov a,12
 545  001F  2000     R  	call _SpiWriteStrobeCMD
 546  0020              #line 546 "c:\users\user\documents\htk_project\3652_adc_test_vib_1\BC3602.c"
 546  0020  2000     R  	call _RFXtalReady
 548  0021              #line 548 "c:\users\user\documents\htk_project\3652_adc_test_vib_1\BC3602.c"
 548  0021  0F20        	mov a,32
 548  0022  2000     R  	call _SpiReadRegCMD
 548  0023  0080     R  	mov _RF_RxBER_2[0],a
 550  0024              #line 550 "c:\users\user\documents\htk_project\3652_adc_test_vib_1\BC3602.c"
 550  0024  0080     E  	mov ra,a
 550  0025  3000     E  	set ra.0
 550  0026  0700     E  	mov a,ra
 550  0027  0080     R  	mov _SpiWriteRegCMD_2[0],a
 550  0028  0F20        	mov a,32
 550  0029  2000     R  	call _SpiWriteRegCMD
 552  002A              #line 552 "c:\users\user\documents\htk_project\3652_adc_test_vib_1\BC3602.c"
 552  002A  0700     R  	mov a,_RF_RxBER_2[0]
"File: BC3602.c      Assembler  Version HGASM0202      Page 23

 552  002B  0D05        	or a,5
 552  002C  0080     R  	mov _SpiWriteRegCMD_2[0],a
 552  002D  0F20        	mov a,32
 552  002E  2000     R  	call _SpiWriteRegCMD
 552  002F  0003        	ret
 552  0030              _RF_RxBER endp
 552  0030              #line 552 "c:\users\user\documents\htk_project\3652_adc_test_vib_1\BC3602.c"
 552  0030              #pragma debug scope 1 1
 552  0030              public _RF_WriteFreq
 552  0030              #pragma debug scope 33 1
 561  0030              #line 561 "c:\users\user\documents\htk_project\3652_adc_test_vib_1\BC3602.c"
 561  0000              _RF_WriteFreq .section 'code'
 561  0000              _RF_WriteFreq proc
 561  0000              public _RF_WriteFreq_2
 561  0000  0003[           local _RF_WriteFreq_2 db 3 dup(?)	; 2,1
            00
            ]
 561  0000  0080     R  	mov _RF_WriteFreq_2[2],a
 561  0001              #pragma debug variable 8 33 _RF_WriteFreq_2+2 "band_sel"
 561  0001              #pragma debug pointer 49 8 33
 561  0001              #pragma debug pointer 49 8 33
 561  0001              #pragma debug variable 49 33 _RF_WriteFreq_2+0 "buffer"
 564  0001              #line 564 "c:\users\user\documents\htk_project\3652_adc_test_vib_1\BC3602.c"
 564  0001  0F20        	mov a,32
 564  0002  2000     R  	call _SpiReadRegCMD
 564  0003  0080     E  	mov ra,a
 565  0004              #line 565 "c:\users\user\documents\htk_project\3652_adc_test_vib_1\BC3602.c"
 565  0004  0700     R  	mov a,_RF_WriteFreq_2[2]
 565  0005  0080     E  	mov rb,a
 565  0006  1100     E  	swapa rb
 565  0007  1885        	rl acc
 565  0008  0EE0        	and a,0e0h
 565  0009  0080     E  	mov rb,a
 566  000A              #line 566 "c:\users\user\documents\htk_project\3652_adc_test_vib_1\BC3602.c"
 566  000A  0700     E  	mov a,rb
 566  000B  0500     E  	or a,ra
 566  000C  0080     R  	mov _SpiWriteRegCMD_2[0],a
 566  000D  0F20        	mov a,32
 566  000E  2000     R  	call _SpiWriteRegCMD
 570  000F              #line 570 "c:\users\user\documents\htk_project\3652_adc_test_vib_1\BC3602.c"
 570  000F  0700     R  	mov a,_RF_WriteFreq_2[0]
 570  0010  0080     R  	mov _RFWriteBuf2_2[1],a
 570  0011  0700     R  	mov a,_RF_WriteFreq_2[1]
 570  0012  0080     R  	mov _RFWriteBuf2_2[2],a
 570  0013  0F04        	mov a,4
 570  0014  0080     R  	mov _RFWriteBuf2_2[0],a
 570  0015  0F62        	mov a,98
 570  0016  2000     R  	call _RFWriteBuf2
 570  0017  0003        	ret
 570  0018              _RF_WriteFreq endp
 570  0018              #line 570 "c:\users\user\documents\htk_project\3652_adc_test_vib_1\BC3602.c"
 570  0018              #pragma debug scope 1 1
 570  0018              public _RF_SetSniffPrm
 570  0018              #pragma debug scope 34 1
 579  0018              #line 579 "c:\users\user\documents\htk_project\3652_adc_test_vib_1\BC3602.c"
 579  0000              _RF_SetSniffPrm .section 'code'
 579  0000              _RF_SetSniffPrm proc
 579  0000              public _RF_SetSniffPrm_2
 579  0000  0002[           local _RF_SetSniffPrm_2 db 2 dup(?)	; 2,0
            00
"File: BC3602.c      Assembler  Version HGASM0202      Page 24

            ]
 579  0002              #pragma debug pointer 50 8 34
 579  0002              #pragma debug pointer 50 8 34
 579  0002              #pragma debug variable 50 34 _RF_SetSniffPrm_2+0 "buffer"
 584  0002              #line 584 "c:\users\user\documents\htk_project\3652_adc_test_vib_1\BC3602.c"
 584  0000  0700     R  	mov a,_RF_SetSniffPrm_2[0]
 584  0001  0080     R  	mov _RFWriteBuf2_2[1],a
 584  0002  0700     R  	mov a,_RF_SetSniffPrm_2[1]
 584  0003  0080     R  	mov _RFWriteBuf2_2[2],a
 584  0004  0F04        	mov a,4
 584  0005  0080     R  	mov _RFWriteBuf2_2[0],a
 584  0006  0F6C        	mov a,108
 584  0007  2000     R  	call _RFWriteBuf2
 584  0008  0003        	ret
 584  0009              _RF_SetSniffPrm endp
 584  0009              #line 584 "c:\users\user\documents\htk_project\3652_adc_test_vib_1\BC3602.c"
 584  0009              #pragma debug scope 1 1
 584  0009              public _RF_SetAddr
 584  0009              #pragma debug scope 35 1
 593  0009              #line 593 "c:\users\user\documents\htk_project\3652_adc_test_vib_1\BC3602.c"
 593  0000              _RF_SetAddr .section 'code'
 593  0000              _RF_SetAddr proc
 593  0000              public _RF_SetAddr_2
 593  0000  0002[           local _RF_SetAddr_2 db 2 dup(?)	; 2,0
            00
            ]
 593  0002              #pragma debug pointer 51 8 35
 593  0002              #pragma debug pointer 51 8 35
 593  0002              #pragma debug variable 51 35 _RF_SetAddr_2+0 "buffer"
 599  0002              #line 599 "c:\users\user\documents\htk_project\3652_adc_test_vib_1\BC3602.c"
 599  0000  0700     R  	mov a,_RF_SetAddr_2[0]
 599  0001  0080     R  	mov _RFWriteBuf2_2[1],a
 599  0002  0700     R  	mov a,_RF_SetAddr_2[1]
 599  0003  0080     R  	mov _RFWriteBuf2_2[2],a
 599  0004  0F02        	mov a,2
 599  0005  0080     R  	mov _RFWriteBuf2_2[0],a
 599  0006  0F52        	mov a,82
 599  0007  2000     R  	call _RFWriteBuf2
 599  0008  0003        	ret
 599  0009              _RF_SetAddr endp
 599  0009              #line 599 "c:\users\user\documents\htk_project\3652_adc_test_vib_1\BC3602.c"
 599  0009              #pragma debug scope 1 1
 599  0009              public _RF_EntryRxMode
 599  0009              #pragma debug scope 36 1
 608  0009              #line 608 "c:\users\user\documents\htk_project\3652_adc_test_vib_1\BC3602.c"
 608  0000              _RF_EntryRxMode .section 'code'
 608  0000              _RF_EntryRxMode proc
 611  0000              #line 611 "c:\users\user\documents\htk_project\3652_adc_test_vib_1\BC3602.c"
 611  0000  0F0C        	mov a,12
 611  0001  2000     R  	call _SpiWriteStrobeCMD
 612  0002              #line 612 "c:\users\user\documents\htk_project\3652_adc_test_vib_1\BC3602.c"
 612  0002  2000     R  	call _RFXtalReady
 621  0003              #line 621 "c:\users\user\documents\htk_project\3652_adc_test_vib_1\BC3602.c"
 621  0003  2000     R  	call _RFDisATR
 622  0004              #line 622 "c:\users\user\documents\htk_project\3652_adc_test_vib_1\BC3602.c"
 622  0004  2000     R  	call _RFCalibration
 624  0005              #line 624 "c:\users\user\documents\htk_project\3652_adc_test_vib_1\BC3602.c"
 624  0005  0F89        	mov a,137
 624  0006  2000     R  	call _SpiWriteStrobeCMD
 625  0007              #line 625 "c:\users\user\documents\htk_project\3652_adc_test_vib_1\BC3602.c"
"File: BC3602.c      Assembler  Version HGASM0202      Page 25

 625  0007  0F20        	mov a,32
 625  0008  0080     R  	mov _SpiWriteRegCMD_2[0],a
 625  0009  0F10        	mov a,16
 625  000A  2000     R  	call _SpiWriteRegCMD
 627  000B              #line 627 "c:\users\user\documents\htk_project\3652_adc_test_vib_1\BC3602.c"
 627  000B  0F8E        	mov a,142
 627  000C  2000     R  	call _SpiWriteStrobeCMD
 627  000D  0003        	ret
 627  000E              _RF_EntryRxMode endp
 627  000E              #line 627 "c:\users\user\documents\htk_project\3652_adc_test_vib_1\BC3602.c"
 627  000E              #pragma debug scope 1 1
 627  000E              public _RF_EntrySniffMode
 627  000E              #pragma debug scope 37 1
 636  000E              #line 636 "c:\users\user\documents\htk_project\3652_adc_test_vib_1\BC3602.c"
 636  0000              _RF_EntrySniffMode .section 'code'
 636  0000              _RF_EntrySniffMode proc
 639  0000              #line 639 "c:\users\user\documents\htk_project\3652_adc_test_vib_1\BC3602.c"
 639  0000  0F0C        	mov a,12
 639  0001  2000     R  	call _SpiWriteStrobeCMD
 640  0002              #line 640 "c:\users\user\documents\htk_project\3652_adc_test_vib_1\BC3602.c"
 640  0002  2000     R  	call _RFXtalReady
 642  0003              #line 642 "c:\users\user\documents\htk_project\3652_adc_test_vib_1\BC3602.c"
 642  0003  2000     R  	call _RFDisATR
 643  0004              #line 643 "c:\users\user\documents\htk_project\3652_adc_test_vib_1\BC3602.c"
 643  0004  0F2B        	mov a,43
 643  0005  2000     R  	call _SpiReadRegCMD
 643  0006  0080     E  	mov ra,a
 644  0007              #line 644 "c:\users\user\documents\htk_project\3652_adc_test_vib_1\BC3602.c"
 644  0007  0FF9        	mov a,249
 644  0008  0680     E  	andm a,ra
 646  0009              #line 646 "c:\users\user\documents\htk_project\3652_adc_test_vib_1\BC3602.c"
 646  0009  3000     E  	set ra.1
 646  000A  0700     E  	mov a,ra
 646  000B  0080     R  	mov _SpiWriteRegCMD_2[0],a
 646  000C  0F2B        	mov a,43
 646  000D  2000     R  	call _SpiWriteRegCMD
 648  000E              #line 648 "c:\users\user\documents\htk_project\3652_adc_test_vib_1\BC3602.c"
 648  000E  2000     R  	call _RFCalibration
 649  000F              #line 649 "c:\users\user\documents\htk_project\3652_adc_test_vib_1\BC3602.c"
 649  000F  2000     R  	call _RFEnATR
 650  0010              #line 650 "c:\users\user\documents\htk_project\3652_adc_test_vib_1\BC3602.c"
 650  0010  0F0B        	mov a,11
 650  0011  2000     R  	call _SpiWriteStrobeCMD
 650  0012  0003        	ret
 650  0013              _RF_EntrySniffMode endp
 650  0013              #line 650 "c:\users\user\documents\htk_project\3652_adc_test_vib_1\BC3602.c"
 650  0013              #pragma debug scope 1 1
 650  0013              public _RF_EntryWOT_Mode
 650  0013              #pragma debug scope 38 1
 659  0013              #line 659 "c:\users\user\documents\htk_project\3652_adc_test_vib_1\BC3602.c"
 659  0000              _RF_EntryWOT_Mode .section 'code'
 659  0000              _RF_EntryWOT_Mode proc
 662  0000              #line 662 "c:\users\user\documents\htk_project\3652_adc_test_vib_1\BC3602.c"
 662  0000  0F0C        	mov a,12
 662  0001  2000     R  	call _SpiWriteStrobeCMD
 663  0002              #line 663 "c:\users\user\documents\htk_project\3652_adc_test_vib_1\BC3602.c"
 663  0002  2000     R  	call _RFXtalReady
 665  0003              #line 665 "c:\users\user\documents\htk_project\3652_adc_test_vib_1\BC3602.c"
 665  0003  2000     R  	call _RFDisATR
 666  0004              #line 666 "c:\users\user\documents\htk_project\3652_adc_test_vib_1\BC3602.c"
"File: BC3602.c      Assembler  Version HGASM0202      Page 26

 666  0004  0F2B        	mov a,43
 666  0005  2000     R  	call _SpiReadRegCMD
 666  0006  0080     E  	mov ra,a
 668  0007              #line 668 "c:\users\user\documents\htk_project\3652_adc_test_vib_1\BC3602.c"
 668  0007  0700     E  	mov a,ra
 668  0008  0EF9        	and a,249
 668  0009  0080     R  	mov _SpiWriteRegCMD_2[0],a
 668  000A  0F2B        	mov a,43
 668  000B  2000     R  	call _SpiWriteRegCMD
 670  000C              #line 670 "c:\users\user\documents\htk_project\3652_adc_test_vib_1\BC3602.c"
 670  000C  2000     R  	call _RFCalibration
 671  000D              #line 671 "c:\users\user\documents\htk_project\3652_adc_test_vib_1\BC3602.c"
 671  000D  2000     R  	call _RFEnATR
 672  000E              #line 672 "c:\users\user\documents\htk_project\3652_adc_test_vib_1\BC3602.c"
 672  000E  0F0B        	mov a,11
 672  000F  2000     R  	call _SpiWriteStrobeCMD
 672  0010  0003        	ret
 672  0011              _RF_EntryWOT_Mode endp
 672  0011              #line 672 "c:\users\user\documents\htk_project\3652_adc_test_vib_1\BC3602.c"
 672  0011              #pragma debug scope 1 1
 672  0011              public _RF_SendData
 672  0011              #pragma debug scope 39 1
 681  0011              #line 681 "c:\users\user\documents\htk_project\3652_adc_test_vib_1\BC3602.c"
 681  0000              _RF_SendData .section 'code'
 681  0000              _RF_SendData proc
 682  0000              #line 682 "c:\users\user\documents\htk_project\3652_adc_test_vib_1\BC3602.c"
 682  0000  0F0C        	mov a,12
 682  0001  2000     R  	call _SpiWriteStrobeCMD
 683  0002              #line 683 "c:\users\user\documents\htk_project\3652_adc_test_vib_1\BC3602.c"
 683  0002  2000     R  	call _RFXtalReady
 685  0003              #line 685 "c:\users\user\documents\htk_project\3652_adc_test_vib_1\BC3602.c"
 685  0003  2000     R  	call _RFDisATR
 686  0004              #line 686 "c:\users\user\documents\htk_project\3652_adc_test_vib_1\BC3602.c"
 686  0004  2000     R  	call _RFCalibration
 688  0005              #line 688 "c:\users\user\documents\htk_project\3652_adc_test_vib_1\BC3602.c"
 688  0005  0F20        	mov a,32
 688  0006  0080     R  	mov _SpiWriteRegCMD_2[0],a
 688  0007  0F0F        	mov a,15
 688  0008  2000     R  	call _SpiWriteRegCMD
 689  0009              #line 689 "c:\users\user\documents\htk_project\3652_adc_test_vib_1\BC3602.c"
 689  0009  0F09        	mov a,9
 689  000A  2000     R  	call _SpiWriteStrobeCMD
 693  000B              #line 693 "c:\users\user\documents\htk_project\3652_adc_test_vib_1\BC3602.c"
 693  000B  0F20        	mov a,32
 693  000C  0080     R  	mov _WriteFIFO_2[2],a
 693  000D  0F00     R  	mov a,low offset _RF_TXFIFO
 693  000E  0080     R  	mov _WriteFIFO_2[0],a
 693  000F  0F00     R  	mov a,high offset _RF_TXFIFO
 693  0010  0080     R  	mov _WriteFIFO_2[1],a
 693  0011  2000     R  	call _WriteFIFO
 696  0012              #line 696 "c:\users\user\documents\htk_project\3652_adc_test_vib_1\BC3602.c"
 696  0012  0F0E        	mov a,14
 696  0013  2000     R  	call _SpiWriteStrobeCMD
 696  0014  0003        	ret
 696  0015              _RF_SendData endp
 696  0015              #line 696 "c:\users\user\documents\htk_project\3652_adc_test_vib_1\BC3602.c"
 696  0015              #pragma debug scope 1 1
 696  0015              public _RF_ResendData
 696  0015              #pragma debug scope 40 1
 705  0015              #line 705 "c:\users\user\documents\htk_project\3652_adc_test_vib_1\BC3602.c"
"File: BC3602.c      Assembler  Version HGASM0202      Page 27

 705  0000              _RF_ResendData .section 'code'
 705  0000              _RF_ResendData proc
 707  0000              #line 707 "c:\users\user\documents\htk_project\3652_adc_test_vib_1\BC3602.c"
 707  0000  0F0C        	mov a,12
 707  0001  2000     R  	call _SpiWriteStrobeCMD
 708  0002              #line 708 "c:\users\user\documents\htk_project\3652_adc_test_vib_1\BC3602.c"
 708  0002  2000     R  	call _RFXtalReady
 709  0003              #line 709 "c:\users\user\documents\htk_project\3652_adc_test_vib_1\BC3602.c"
 709  0003  0F0E        	mov a,14
 709  0004  2000     R  	call _SpiWriteStrobeCMD
 709  0005  0003        	ret
 709  0006              _RF_ResendData endp
 709  0006              #line 709 "c:\users\user\documents\htk_project\3652_adc_test_vib_1\BC3602.c"
 709  0006              #pragma debug scope 1 1
 709  0006              public _RF_ReadRxData
 709  0006              #pragma debug scope 41 1
 718  0006              #line 718 "c:\users\user\documents\htk_project\3652_adc_test_vib_1\BC3602.c"
 718  0000              _RF_ReadRxData .section 'code'
 718  0000              _RF_ReadRxData proc
 722  0000              #line 722 "c:\users\user\documents\htk_project\3652_adc_test_vib_1\BC3602.c"
 722  0000  0F20        	mov a,32
 722  0001  0080     R  	mov _ReadFIFO_2[2],a
 722  0002  0F00     R  	mov a,low offset _RF_RXFIFO
 722  0003  0080     R  	mov _ReadFIFO_2[0],a
 722  0004  0F00     R  	mov a,high offset _RF_RXFIFO
 722  0005  0080     R  	mov _ReadFIFO_2[1],a
 722  0006  2000     R  	call _ReadFIFO
 724  0007              #line 724 "c:\users\user\documents\htk_project\3652_adc_test_vib_1\BC3602.c"
 724  0007  0F89        	mov a,137
 724  0008  2000     R  	call _SpiWriteStrobeCMD
 724  0009  0003        	ret
 724  000A              _RF_ReadRxData endp
 724  000A              #line 724 "c:\users\user\documents\htk_project\3652_adc_test_vib_1\BC3602.c"
 724  000A              #pragma debug scope 1 1
 724  000A              public _RFReadRssi
 724  000A              #pragma debug scope 42 1
 733  000A              #line 733 "c:\users\user\documents\htk_project\3652_adc_test_vib_1\BC3602.c"
 733  0000              _RFReadRssi .section 'code'
 733  0000              _RFReadRssi proc
 735  0000              #line 735 "c:\users\user\documents\htk_project\3652_adc_test_vib_1\BC3602.c"
 735  0000  0F29        	mov a,41
 735  0001  2000     R  	call _SpiReadRegCMD
 735  0002  0080     E  	mov ra,a
 737  0003              #line 737 "c:\users\user\documents\htk_project\3652_adc_test_vib_1\BC3602.c"
 737  0003  0700     E  	mov a,ra
 737  0004  0003        	ret
 737  0005              _RFReadRssi endp
 737  0005              #line 737 "c:\users\user\documents\htk_project\3652_adc_test_vib_1\BC3602.c"
 737  0005              #pragma debug scope 1 1
 737  0005              public _Extend_FIFO_Enable
 737  0005              #pragma debug scope 43 1
 745  0005              #line 745 "c:\users\user\documents\htk_project\3652_adc_test_vib_1\BC3602.c"
 745  0000              _Extend_FIFO_Enable .section 'code'
 745  0000              _Extend_FIFO_Enable proc
 747  0000              #line 747 "c:\users\user\documents\htk_project\3652_adc_test_vib_1\BC3602.c"
 747  0000  0F0A        	mov a,10
 747  0001  2000     R  	call _SpiReadRegCMD
 747  0002  0080     E  	mov ra,a
 748  0003              #line 748 "c:\users\user\documents\htk_project\3652_adc_test_vib_1\BC3602.c"
 748  0003  0FF3        	mov a,243
"File: BC3602.c      Assembler  Version HGASM0202      Page 28

 748  0004  0680     E  	andm a,ra
 750  0005              #line 750 "c:\users\user\documents\htk_project\3652_adc_test_vib_1\BC3602.c"
 750  0005  0700     E  	mov a,ra
 750  0006  0D07        	or a,7
 750  0007  0080     R  	mov _SpiWriteRegCMD_2[0],a
 750  0008  0F0A        	mov a,10
 750  0009  2000     R  	call _SpiWriteRegCMD
 752  000A              #line 752 "c:\users\user\documents\htk_project\3652_adc_test_vib_1\BC3602.c"
 752  000A  0F03        	mov a,3
 752  000B  2000     R  	call _SpiReadRegCMD
 752  000C  0080     E  	mov ra,a
 754  000D              #line 754 "c:\users\user\documents\htk_project\3652_adc_test_vib_1\BC3602.c"
 754  000D  0700     E  	mov a,ra
 754  000E  0D21        	or a,33
 754  000F  0080     R  	mov _SpiWriteRegCMD_2[0],a
 754  0010  0F03        	mov a,3
 754  0011  2000     R  	call _SpiWriteRegCMD
 754  0012  0003        	ret
 754  0013              _Extend_FIFO_Enable endp
 754  0013              #line 754 "c:\users\user\documents\htk_project\3652_adc_test_vib_1\BC3602.c"
 754  0013              #pragma debug scope 1 1
 754  0013              public _Extend_FIFO_Disable
 754  0013              #pragma debug scope 44 1
 763  0013              #line 763 "c:\users\user\documents\htk_project\3652_adc_test_vib_1\BC3602.c"
 763  0000              _Extend_FIFO_Disable .section 'code'
 763  0000              _Extend_FIFO_Disable proc
 766  0000              #line 766 "c:\users\user\documents\htk_project\3652_adc_test_vib_1\BC3602.c"
 766  0000  0F0A        	mov a,10
 766  0001  2000     R  	call _SpiReadRegCMD
 766  0002  0080     E  	mov ra,a
 768  0003              #line 768 "c:\users\user\documents\htk_project\3652_adc_test_vib_1\BC3602.c"
 768  0003  0700     E  	mov a,ra
 768  0004  0EF8        	and a,248
 768  0005  0080     R  	mov _SpiWriteRegCMD_2[0],a
 768  0006  0F0A        	mov a,10
 768  0007  2000     R  	call _SpiWriteRegCMD
 770  0008              #line 770 "c:\users\user\documents\htk_project\3652_adc_test_vib_1\BC3602.c"
 770  0008  0F03        	mov a,3
 770  0009  2000     R  	call _SpiReadRegCMD
 770  000A  0080     E  	mov ra,a
 772  000B              #line 772 "c:\users\user\documents\htk_project\3652_adc_test_vib_1\BC3602.c"
 772  000B  3400     E  	clr ra.5
 772  000C  0700     E  	mov a,ra
 772  000D  0080     R  	mov _SpiWriteRegCMD_2[0],a
 772  000E  0F03        	mov a,3
 772  000F  2000     R  	call _SpiWriteRegCMD
 772  0010  0003        	ret
 772  0011              _Extend_FIFO_Disable endp
 772  0011              #line 772 "c:\users\user\documents\htk_project\3652_adc_test_vib_1\BC3602.c"
 772  0011              #pragma debug scope 1 1
 772  0011              public _RFEnARK
 772  0011              #pragma debug scope 45 1
 781  0011              #line 781 "c:\users\user\documents\htk_project\3652_adc_test_vib_1\BC3602.c"
 781  0000              _RFEnARK .section 'code'
 781  0000              _RFEnARK proc
 784  0000              #line 784 "c:\users\user\documents\htk_project\3652_adc_test_vib_1\BC3602.c"
 784  0000  0F31        	mov a,49
 784  0001  2000     R  	call _SpiReadRegCMD
 784  0002  0080     E  	mov ra,a
 787  0003              #line 787 "c:\users\user\documents\htk_project\3652_adc_test_vib_1\BC3602.c"
"File: BC3602.c      Assembler  Version HGASM0202      Page 29

 787  0003  3000     E  	set ra.0
 787  0004  0700     E  	mov a,ra
 787  0005  0080     R  	mov _SpiWriteRegCMD_2[0],a
 787  0006  0F31        	mov a,49
 787  0007  2000     R  	call _SpiWriteRegCMD
 789  0008              #line 789 "c:\users\user\documents\htk_project\3652_adc_test_vib_1\BC3602.c"
 789  0008  0F03        	mov a,3
 789  0009  2000     R  	call _SpiReadRegCMD
 789  000A  0080     E  	mov ra,a
 792  000B              #line 792 "c:\users\user\documents\htk_project\3652_adc_test_vib_1\BC3602.c"
 792  000B  3000     E  	set ra.7
 792  000C  0700     E  	mov a,ra
 792  000D  0080     R  	mov _SpiWriteRegCMD_2[0],a
 792  000E  0F03        	mov a,3
 792  000F  2000     R  	call _SpiWriteRegCMD
 792  0010  0003        	ret
 792  0011              _RFEnARK endp
 792  0011              #line 792 "c:\users\user\documents\htk_project\3652_adc_test_vib_1\BC3602.c"
 792  0011              #pragma debug scope 1 1
 792  0011              public _RFDisARK
 792  0011              #pragma debug scope 46 1
 802  0011              #line 802 "c:\users\user\documents\htk_project\3652_adc_test_vib_1\BC3602.c"
 802  0000              _RFDisARK .section 'code'
 802  0000              _RFDisARK proc
 805  0000              #line 805 "c:\users\user\documents\htk_project\3652_adc_test_vib_1\BC3602.c"
 805  0000  0F31        	mov a,49
 805  0001  2000     R  	call _SpiReadRegCMD
 805  0002  0080     E  	mov ra,a
 807  0003              #line 807 "c:\users\user\documents\htk_project\3652_adc_test_vib_1\BC3602.c"
 807  0003  3400     E  	clr ra.0
 807  0004  0700     E  	mov a,ra
 807  0005  0080     R  	mov _SpiWriteRegCMD_2[0],a
 807  0006  0F31        	mov a,49
 807  0007  2000     R  	call _SpiWriteRegCMD
 807  0008  0003        	ret
 807  0009              _RFDisARK endp
 807  0009              #line 807 "c:\users\user\documents\htk_project\3652_adc_test_vib_1\BC3602.c"
 807  0009              #pragma debug scope 1 1
 807  0009              public _CRC16_CCITT_FALSE
 807  0009              #pragma debug scope 47 1
 816  0009              #line 816 "c:\users\user\documents\htk_project\3652_adc_test_vib_1\BC3602.c"
 816  0000              _CRC16_CCITT_FALSE .section 'code'
 816  0000              _CRC16_CCITT_FALSE proc
 816  0000              public _CRC16_CCITT_FALSE_2
 816  0000  0008[           local _CRC16_CCITT_FALSE_2 db 8 dup(?)	; 4,4
            00
            ]
 816  0008              #pragma debug pointer 52 8 47
 816  0008              #pragma debug pointer 52 8 47
 816  0008              #pragma debug variable 52 47 _CRC16_CCITT_FALSE_2+0 "buf"
 816  0008              #pragma debug variable 11 47 _CRC16_CCITT_FALSE_2+2 "len"
 816  0008              #pragma debug variable 8 47 _CRC16_CCITT_FALSE_2+4 "a"
 823  0008              #line 823 "c:\users\user\documents\htk_project\3652_adc_test_vib_1\BC3602.c"
 823  0000  1F80     E  	set rb
 823  0001  1F80     E  	set rc
 826  0002              #line 826 "c:\users\user\documents\htk_project\3652_adc_test_vib_1\BC3602.c"
 826  0002  1F00     R  	clr _CRC16_CCITT_FALSE_2[4]
 826  0003              _L92:
 826  0003              #line 826 "c:\users\user\documents\htk_project\3652_adc_test_vib_1\BC3602.c"
 826  0003  0700     R  	mov a,_CRC16_CCITT_FALSE_2[4]
"File: BC3602.c      Assembler  Version HGASM0202      Page 30

 826  0004  0080     E  	mov rd,a
 826  0005  1F00     E  	clr re
 826  0006  0700     E  	mov a,rd
 826  0007  0200     R  	sub a,_CRC16_CCITT_FALSE_2[2]
 826  0008  0700     E  	mov a,re
 826  0009  1200     R  	sbc a,_CRC16_CCITT_FALSE_2[3]
 826  000A  3B8A        	snz sc
 826  000B  2800     R  	jmp _L97
 828  000C              #line 828 "c:\users\user\documents\htk_project\3652_adc_test_vib_1\BC3602.c"
 828  000C  0700     R  	mov a,_CRC16_CCITT_FALSE_2[0]
 828  000D  0083        	mov mp,a
 828  000E  0700     R  	mov a,_CRC16_CCITT_FALSE_2[1]
 828  000F  0084        	mov sbp,a
 828  0010  2000     E  	call _Crom2Prom
 828  0011  0080     E  	mov rd,a
 828  0012  0F08        	mov a,8
 828  0013  0080     R  	mov _CRC16_CCITT_FALSE_2[5],a
 829  0014              #line 829 "c:\users\user\documents\htk_project\3652_adc_test_vib_1\BC3602.c"
 829  0014  1F00     E  	clr ra
 831  0015              #line 831 "c:\users\user\documents\htk_project\3652_adc_test_vib_1\BC3602.c"
 831  0015  0700     E  	mov a,rd
 831  0016  0080     R  	mov _CRC16_CCITT_FALSE_2[6],a
 831  0017  1F00     R  	clr _CRC16_CCITT_FALSE_2[7]
 831  0018              _L95:
 832  0018              #line 832 "c:\users\user\documents\htk_project\3652_adc_test_vib_1\BC3602.c"
 832  0018  1800     E  	rla rc
 832  0019  0E01        	and a,1
 832  001A  0080     E  	mov rh,a
 833  001B              #line 833 "c:\users\user\documents\htk_project\3652_adc_test_vib_1\BC3602.c"
 833  001B  340A        	clr c
 833  001C  1A80     E  	rlc rb
 833  001D  1A80     E  	rlc rc
 831  001E              #line 831 "c:\users\user\documents\htk_project\3652_adc_test_vib_1\BC3602.c"
 831  001E  0F07        	mov a,7
 831  001F  0200     E  	sub a,ra
 831  0020  0080     E  	mov rf,a
 831  0021  0700     R  	mov a,_CRC16_CCITT_FALSE_2[6]
 831  0022  0080     E  	mov rd,a
 831  0023  0700     R  	mov a,_CRC16_CCITT_FALSE_2[7]
 831  0024  0080     E  	mov re,a
 831  0025  1400     E  	inca rf
 831  0026  2800     R  	jmp _LI1
 831  0027              _LI2:
 831  0027  340A        	clr c
 831  0028  3C00     E  	sz re.7
 831  0029  300A        	set c
 831  002A  1B80     E  	rrc re
 831  002B  1B80     E  	rrc rd
 831  002C              _LI1:
 831  002C  1785        	sdz acc
 831  002D  2800     R  	jmp _LI2
 834  002E              #line 834 "c:\users\user\documents\htk_project\3652_adc_test_vib_1\BC3602.c"
 834  002E  3C00     E  	sz rd.0
 834  002F  2800     R  	jmp _LI3
 834  0030  3800     E  	snz rh.0
 834  0031  2800     R  	jmp _L93
 834  0032  2800     R  	jmp _LI4
 834  0033              _LI3:
 834  0033  3C00     E  	sz rh.0
 834  0034  2800     R  	jmp _L93
"File: BC3602.c      Assembler  Version HGASM0202      Page 31

 834  0035              _LI4:
 835  0035              #line 835 "c:\users\user\documents\htk_project\3652_adc_test_vib_1\BC3602.c"
 835  0035  0F10        	mov a,16
 835  0036  0480     E  	xorm a,rc
 835  0037  0F21        	mov a,33
 835  0038  0480     E  	xorm a,rb
 835  0039              _L93:
 829  0039              #line 829 "c:\users\user\documents\htk_project\3652_adc_test_vib_1\BC3602.c"
 829  0039  1480     E  	inc ra
 829  003A  1780     R  	sdz _CRC16_CCITT_FALSE_2[5]
 829  003B  2800     R  	jmp _L95
 838  003C              #line 838 "c:\users\user\documents\htk_project\3652_adc_test_vib_1\BC3602.c"
 838  003C  1480     R  	inc _CRC16_CCITT_FALSE_2[0]
 838  003D  3D0A        	sz z
 838  003E  1480     R  	inc _CRC16_CCITT_FALSE_2[1]
 826  003F              #line 826 "c:\users\user\documents\htk_project\3652_adc_test_vib_1\BC3602.c"
 826  003F  1480     R  	inc _CRC16_CCITT_FALSE_2[4]
 826  0040  2800     R  	jmp _L92
 826  0041              _L97:
 841  0041              #line 841 "c:\users\user\documents\htk_project\3652_adc_test_vib_1\BC3602.c"
 841  0041  0700     E  	mov a,rb
 841  0042  0080     E  	mov ra,a
 841  0043  0700     E  	mov a,rc
 841  0044  0080     E  	mov rb,a
 841  0045  0003        	ret
 841  0046              _CRC16_CCITT_FALSE endp
 841  0046              #line 841 "c:\users\user\documents\htk_project\3652_adc_test_vib_1\BC3602.c"
 841  0046              #pragma debug scope 1 1
  17  0046              #line 17 "c:\users\user\documents\htk_project\3652_adc_test_vib_1\BC3602.c"
  17  0046              public _mRFSync
  17  0000              @HCCINIT0_mRFSync .section 'data'
  17  0000  0004[       _mRFSync	db 4 dup(0)
            00
            ]
  17  0004              #pragma debug array 53 8 4 1
  17  0004              #pragma debug array 53 8 4 1
  17  0004              #pragma debug variable 53 1 _mRFSync "mRFSync"
  17  0004              
  17  0000              @HCCINIT .section 'data'
  16  0000              #line 16 "c:\users\user\documents\htk_project\3652_adc_test_vib_1\BC3602.c"
  16  0000              public _RF_IRQ
  16  0000              @HCCINIT0_RF_IRQ .section 'data'
  16  0000              _RF_IRQ	db 0
  16  0001              #pragma debug variable 8 1 _RF_IRQ "RF_IRQ"
  16  0001              
  16  0000              @HCCINIT .section 'data'
  14  0000              #line 14 "c:\users\user\documents\htk_project\3652_adc_test_vib_1\BC3602.c"
  14  0000              public _RF_RXFIFO
  14  0000              @HCCINIT0_RF_RXFIFO .section 'data'
  14  0000  0020[       _RF_RXFIFO	db 32 dup(0)
            00
            ]
  14  0020              #pragma debug array 54 8 32 1
  14  0020              #pragma debug array 54 8 32 1
  14  0020              #pragma debug variable 54 1 _RF_RXFIFO "RF_RXFIFO"
  14  0020              
  14  0000              @HCCINIT .section 'data'
  13  0000              #line 13 "c:\users\user\documents\htk_project\3652_adc_test_vib_1\BC3602.c"
  13  0000              public _RF_TXFIFO
  13  0000              @HCCINIT0_RF_TXFIFO .section 'data'
"File: BC3602.c      Assembler  Version HGASM0202      Page 32

  13  0000  0020[       _RF_TXFIFO	db 32 dup(0)
            00
            ]
  13  0020              #pragma debug variable 54 1 _RF_TXFIFO "RF_TXFIFO"
  13  0020              
  13  0000              @HCCINIT .section 'data'
  12  0000              #line 12 "c:\users\user\documents\htk_project\3652_adc_test_vib_1\BC3602.c"
  12  0000              public _ExtRxLength
  12  0000              @HCCINIT0_ExtRxLength .section 'data'
  12  0000              _ExtRxLength	db 0
  12  0001              #pragma debug variable 8 1 _ExtRxLength "ExtRxLength"
  12  0001              
  12  0000              @HCCINIT .section 'data'
  12  0000              public _ExtTxLength
  12  0000              @HCCINIT	.section 'data'
  11  0000              #line 11 "c:\users\user\documents\htk_project\3652_adc_test_vib_1\BC3602.c"
  11  0000              @HCCINIT_ExtTxLength .section 'data'
  11  0000              _ExtTxLength label byte
  11  0000              #pragma debug variable 8 1 _ExtTxLength "ExtTxLength"
  11  0000              	db -1
  11  0000              @ROMDATA_BASE .section inpage 'code'
  11  0000              	db -1
  11  0001              @HCCINIT_ExtTxLength .section 'data'
  11  0001              public _CBPF_REGS_TALBE
  11  0000              @crom	.section 'crom'

 365  0000              #line 365 "c:\users\user\documents\htk_project\3652_adc_test_vib_1\BC3602_CONFIG_TABLE.h"
 365  0000              @crom	.section	'crom'
 365  0000              _CBPF_REGS_TALBE:
 365  0000              #pragma debug array 55 10 3 1
 365  0000              #pragma debug array 55 10 3 1
 365  0000              #pragma debug variable 55 1 _CBPF_REGS_TALBE "CBPF_REGS_TALBE"
 365  0000  2F44        	dc 12100
 365  0001  2603        	dc 9731
 365  0002  2788        	dc 10120
 365  0003              public _FCF_REGS_TALBE
 343  0003              #line 343 "c:\users\user\documents\htk_project\3652_adc_test_vib_1\BC3602_CONFIG_TABLE.h"
 343  0003              @crom	.section	'crom'
 343  0003              _FCF_REGS_TALBE:
 343  0003              #pragma debug array 56 10 19 1
 343  0003              #pragma debug array 56 10 19 1
 343  0003              #pragma debug variable 56 1 _FCF_REGS_TALBE "FCF_REGS_TALBE"
 343  0003  2C06        	dc 11270
 343  0004  2D4C        	dc 11596
 343  0005  2E00        	dc 11776
 343  0006  2F00        	dc 12032
 343  0007  3000        	dc 12288
 343  0008  3100        	dc 12544
 343  0009  3200        	dc 12800
 343  000A  3300        	dc 13056
 343  000B  3400        	dc 13312
 343  000C  3500        	dc 13568
 343  000D  3600        	dc 13824
 343  000E  3700        	dc 14080
 343  000F  3800        	dc 14336
 343  0010  3900        	dc 14592
 343  0011  3A00        	dc 14848
 343  0012  3B00        	dc 15104
 343  0013  3C00        	dc 15360
 343  0014  3D00        	dc 15616
"File: BC3602_CONFIG_TABLE.h  Assembler  Version HGASM0202      Page 33

 343  0015  3E00        	dc 15872
 343  0016              public _DM_REGS_TALBE
 329  0016              #line 329 "c:\users\user\documents\htk_project\3652_adc_test_vib_1\BC3602_CONFIG_TABLE.h"
 329  0016              @crom	.section	'crom'
 329  0016              _DM_REGS_TALBE:
 329  0016              #pragma debug array 57 10 11 1
 329  0016              #pragma debug array 57 10 11 1
 329  0016              #pragma debug variable 57 1 _DM_REGS_TALBE "DM_REGS_TALBE"
 329  0016  1409        	dc 5129
 329  0017  1560        	dc 5472
 329  0018  1666        	dc 5734
 329  0019  1713        	dc 5907
 329  001A  1840        	dc 6208
 329  001B  19E0        	dc 6624
 329  001C  1A08        	dc 6664
 329  001D  1B30        	dc 6960
 329  001E  1C00        	dc 7168
 329  001F  1D00        	dc 7424
 329  0020  1E0D        	dc 7693
 329  0021              public _Frequency_REGS_TALBE
 224  0021              #line 224 "c:\users\user\documents\htk_project\3652_adc_test_vib_1\BC3602_CONFIG_TABLE.h"
 224  0021              @crom	.section	'crom'
 224  0021              _Frequency_REGS_TALBE:
 224  0021              #pragma debug array 58 10 4 1
 224  0021              #pragma debug array 58 10 4 1
 224  0021              #pragma debug variable 58 1 _Frequency_REGS_TALBE "Frequency_REGS_TALBE"
 224  0021  221B        	dc 8731
 224  0022  2385        	dc 9093
 224  0023  24EB        	dc 9451
 224  0024  2501        	dc 9473
 224  0025              public _TxPowerValue
 169  0025              #line 169 "c:\users\user\documents\htk_project\3652_adc_test_vib_1\BC3602_CONFIG_TABLE.h"
 169  0025              @crom	.section	'crom'
 169  0025              _TxPowerValue:
 169  0025              #pragma debug array 59 8 5 1
 169  0025              #pragma debug array 59 8 5 1
 169  0025              #pragma debug array 60 59 5 1
 169  0025              #pragma debug array 60 59 5 1
 169  0025              #pragma debug variable 60 1 _TxPowerValue "TxPowerValue"
 169  0025              	db 6
 169  0026              	db 8
 169  0026              	db 11
 169  0027              	db 15
 169  0027              	db 0
 169  0028              	db 3
 169  0028              	db 5
 169  0029              	db 9
 169  0029              	db 13
 169  002A              	db 0
 169  002A              	db 3
 169  002B              	db 5
 169  002B              	db 9
 169  002C              	db 13
 169  002C              	db 0
 169  002D              	db 3
 169  002D              	db 6
 169  002E              	db 10
 169  002E              	db 14
 169  002F              	db 0
 169  002F              	db 6
"File: BC3602_CONFIG_TABLE.h  Assembler  Version HGASM0202      Page 34

 169  0030              	db 8
 169  0030              	db 11
 169  0031              	db 15
 169  0031              	db 0
 169  0032              public _BC3602_SYNCWORD
 139  0032              #line 139 "c:\users\user\documents\htk_project\3652_adc_test_vib_1\BC3602_CONFIG_TABLE.h"
 139  0032              @crom	.section	'crom'
 139  0032              _BC3602_SYNCWORD:
 139  0032              #pragma debug variable 53 1 _BC3602_SYNCWORD "BC3602_SYNCWORD"
 139  0032              	db 120
 139  0032              	db 86
 139  0033              	db 52
 139  0033              	db 18
 139  0034              public _BANK2_REGS_TALBE
 106  0034              #line 106 "c:\users\user\documents\htk_project\3652_adc_test_vib_1\BC3602_CONFIG_TABLE.h"
 106  0034              @crom	.section	'crom'
 106  0034              _BANK2_REGS_TALBE:
 106  0034              #pragma debug array 61 10 8 1
 106  0034              #pragma debug array 61 10 8 1
 106  0034              #pragma debug variable 61 1 _BANK2_REGS_TALBE "BANK2_REGS_TALBE"
 106  0034  28A3        	dc 10403
 106  0035  2980        	dc 10624
 106  0036  2D16        	dc 11542
 106  0037  3000        	dc 12288
 106  0038  3164        	dc 12644
 106  0039  3A94        	dc 14996
 106  003A  34BC        	dc 13500
 106  003B  2E64        	dc 11876
 106  003C              public _BANK1_REGS_TALBE
  97  003C              #line 97 "c:\users\user\documents\htk_project\3652_adc_test_vib_1\BC3602_CONFIG_TABLE.h"
  97  003C              @crom	.section	'crom'
  97  003C              _BANK1_REGS_TALBE:
  97  003C              #pragma debug variable 58 1 _BANK1_REGS_TALBE "BANK1_REGS_TALBE"
  97  003C  2140        	dc 8512
  97  003D  2224        	dc 8740
  97  003E  2400        	dc 9216
  97  003F  2630        	dc 9776
  97  0040              public _BANK0_REGS_TALBE
  81  0040              #line 81 "c:\users\user\documents\htk_project\3652_adc_test_vib_1\BC3602_CONFIG_TABLE.h"
  81  0040              @crom	.section	'crom'
  81  0040              _BANK0_REGS_TALBE:
  81  0040              #pragma debug variable 57 1 _BANK0_REGS_TALBE "BANK0_REGS_TALBE"
  81  0040  2B42        	dc 11074
  81  0041  2C00        	dc 11264
  81  0042  2D20        	dc 11552
  81  0043  2E08        	dc 11784
  81  0044  2F28        	dc 12072
  81  0045  3000        	dc 12288
  81  0046  3132        	dc 12594
  81  0047  3228        	dc 12840
  81  0048  3500        	dc 13568
  81  0049  3C40        	dc 15424
  81  004A  3D03        	dc 15619
  81  004B              public _COMMON_REGS_TALBE
  75  004B              #line 75 "c:\users\user\documents\htk_project\3652_adc_test_vib_1\BC3602_CONFIG_TABLE.h"
  75  004B              @crom	.section	'crom'
  75  004B              _COMMON_REGS_TALBE:
  75  004B              #pragma debug array 62 10 1 1
  75  004B              #pragma debug array 62 10 1 1
  75  004B              #pragma debug variable 62 1 _COMMON_REGS_TALBE "COMMON_REGS_TALBE"
"File: BC3602_CONFIG_TABLE.h  Assembler  Version HGASM0202      Page 35

  75  004B  0040        	dc 64
  75  004C              public _PACKET_REGS_TALBE
  43  004C              #line 43 "c:\users\user\documents\htk_project\3652_adc_test_vib_1\BC3602_CONFIG_TABLE.h"
  43  004C              @crom	.section	'crom'
  43  004C              _PACKET_REGS_TALBE:
  43  004C              #pragma debug variable 57 1 _PACKET_REGS_TALBE "PACKET_REGS_TALBE"
  43  004C  0900        	dc 2304
  43  004D  0A01        	dc 2561
  43  004E  0B07        	dc 2823
  43  004F  0C07        	dc 3079
  43  0050  0D20        	dc 3360
  43  0051  0E00        	dc 3584
  43  0052  0F20        	dc 3872
  43  0053  1020        	dc 4128
  43  0054  1127        	dc 4391
  43  0055  1200        	dc 4608
  43  0056  1300        	dc 4864
  43  0057              public _IRQIO_REGS_TALBE
  25  0057              #line 25 "c:\users\user\documents\htk_project\3652_adc_test_vib_1\BC3602_CONFIG_TABLE.h"
  25  0057              @crom	.section	'crom'
  25  0057              _IRQIO_REGS_TALBE:
  25  0057              #pragma debug array 63 10 6 1
  25  0057              #pragma debug array 63 10 6 1
  25  0057              #pragma debug variable 63 1 _IRQIO_REGS_TALBE "IRQIO_REGS_TALBE"
  25  0057  0700        	dc 1792
  25  0058  064D        	dc 1613
  25  0059  08FF        	dc 2303
  25  005A  020E        	dc 526
  25  005B  0313        	dc 787
  25  005C  04FF        	dc 1279
  25  005D              #pragma debug struct_end
  25  005D              #pragma debug struct_end
  25  005D              #pragma debug union_end
  25  005D              #pragma debug union_end
  25  005D              #pragma debug variable 65 1 ___intc0 "__intc0" 1
  25  005D              #pragma debug struct_end
  25  005D              #pragma debug struct_end
  25  005D              #pragma debug union_end
  25  005D              #pragma debug union_end
  25  005D              #pragma debug variable 67 1 ___ifs "__ifs" 1
  25  005D              extern _SpiCSN_low:near
  25  005D              extern _SpiWrite:near
  25  005D              extern _SpiCSN_high:near
  25  005D              extern _SpiRead:near
  25  005D              extern _SpiIOInti:near
  25  005D              
  25  005D              ; 
  25  005D              ; Generated by holtek-gcc v3.19, Fri May 27 15:24:06 2022
  25  005D              ; Rebuild 718
  25  005D              ; end of file


        0 Errors, 0