"File: hal_ktd.c     Assembler  Version HGASM0202      Page 1


   1  0000              ; Generated by holtek-gcc v3.19, Fri May 27 15:24:03 2022
   2  0000              ; 
   3  0000              ; Configuration:
   4  0000              ;       with long instruction
   5  0000              ;       Single ROM, Multi-RAM
   6  0000              ;       bits_per_rom_unit:16
   7  0000              ;       with mp1
   8  0000              ;       with tbhp, address(0x9)
   9  0000              ;          Use tabrd-const
  10  0000              ;       
  11  0000              ; SFR address of long-instruction arch:
  12  0000              ;    mp0 = -1,1,0
  13  0000              ;    mp1 = 4,3,2
  14  0000              ;    mp2 = 14,13,12
  15  0000              ;    tbp = 9,7,8
  16  0000              ;    acc = 5
  17  0000              ;    pcl = 6
  18  0000              ;    status = 10
  19  0000              ;    bp = 11
  20  0000              ;    intc = 17
  21  0000              ;       
  22  0000              ;       
  23  0000              ; use 'tabrdc' instead of 'tabrd'
  24  0000              ;       
  25  0000              
  26  0000              #pragma translator "holtek-gcc 4.6.4" "3.19" "build 20130711"
  27  0000              ; Rebuild 718
  28  0000              
  29  0000              ir equ [2]
  30  0000              mp equ [3]
  31  0000              sbp equ [4]
  32  0000              acc equ [5]
  33  0000              bp equ [11]
  34  0000              tblp equ [7]
  35  0000              tbhp equ [9]
  36  0000              status equ [10]
  37  0000              c equ [10].0
  38  0000              ac equ [10].1
  39  0000              z equ [10].2
  40  0000              ov equ [10].3
  41  0000              cz equ [10].6
  42  0000              sc equ [10].7
  43  0000              intc equ [17]
  44  0000              
  45  0000              extern ra:byte
  46  0000              extern rb:byte
  47  0000              extern rc:byte
  48  0000              extern rd:byte
  49  0000              extern re:byte
  50  0000              extern rf:byte
  51  0000              extern rg:byte
  52  0000              extern rh:byte
  53  0000              extern _Crom2Prom:near
  54  0000              extern _Crom2PromNext:near
  55  0000              
  56  0000              RAMBANK 0 @BITDATASEC, @BITDATASEC1
  57  0000              @HCCINIT	.section 'data'
  58  0000              @HCCINIT0	.section 'data'
  59  0000              @BITDATASEC	 .section 'data'
"File: hal_ktd.ASM   Assembler  Version HGASM0202      Page 2

  60  0000              @BITDATASEC1	 .section 'data'
  61  0000              
  62  0000              #pragma debug scope 1 1
  63  0000              	extern __DELAY3:near
  64  0000              	extern __DELAYX3:near
  65  0000              	extern __DELAYX6:near
  66  0000              	extern __DELAYY5:near
  67  0000              	extern __DELAYY3:near
  68  0000              	extern _builtin_holtek_delay_2:byte
  69  0000              public _ktd_en
  70  0000              #pragma debug scope 2 1

   4  0000              #line 4 "c:\users\user\documents\htk_project\3652_adc_test_vib_1\hal_ktd.c"
   4  0000              _ktd_en .section 'code'
   4  0000              _ktd_en proc
   5  0000              #line 5 "c:\users\user\documents\htk_project\3652_adc_test_vib_1\hal_ktd.c"
   5  0000  1F00     E  	clr _WriteI2C_Int_2[4]
   5  0001  1F00     E  	clr _WriteI2C_Int_2[5]
   5  0002  0F02        	mov a,2
   5  0003  0080     E  	mov _WriteI2C_Int_2[2],a
   5  0004  1F00     E  	clr _WriteI2C_Int_2[3]
   5  0005  0F68        	mov a,104
   5  0006  0080     E  	mov _WriteI2C_Int_2[0],a
   5  0007  1F00     E  	clr _WriteI2C_Int_2[1]
   5  0008  2000     E  	call _WriteI2C_Int
   6  0009              #line 6 "c:\users\user\documents\htk_project\3652_adc_test_vib_1\hal_ktd.c"
   6  0009  0F01        	mov a,1
   6  000A  0080     E  	mov _delay_2[0],a
   6  000B  1F00     E  	clr _delay_2[1]
   6  000C  2000     E  	call _delay
   7  000D              #line 7 "c:\users\user\documents\htk_project\3652_adc_test_vib_1\hal_ktd.c"
   7  000D  0FA3        	mov a,-93
   7  000E  0080     E  	mov _WriteI2C_Int_2[4],a
   7  000F  1F00     E  	clr _WriteI2C_Int_2[5]
   7  0010  0F02        	mov a,2
   7  0011  0080     E  	mov _WriteI2C_Int_2[2],a
   7  0012  1F00     E  	clr _WriteI2C_Int_2[3]
   7  0013  0F68        	mov a,104
   7  0014  0080     E  	mov _WriteI2C_Int_2[0],a
   7  0015  1F00     E  	clr _WriteI2C_Int_2[1]
   7  0016  2000     E  	call _WriteI2C_Int
   8  0017              #line 8 "c:\users\user\documents\htk_project\3652_adc_test_vib_1\hal_ktd.c"
   8  0017  0F01        	mov a,1
   8  0018  0080     E  	mov _delay_2[0],a
   8  0019  1F00     E  	clr _delay_2[1]
   8  001A  2000     E  	call _delay
   8  001B  0003        	ret
   8  001C              _ktd_en endp
   8  001C              #line 8 "c:\users\user\documents\htk_project\3652_adc_test_vib_1\hal_ktd.c"
   8  001C              #pragma debug scope 1 1
   8  001C              public _ktd_clear
   8  001C              #pragma debug scope 3 1
  12  001C              #line 12 "c:\users\user\documents\htk_project\3652_adc_test_vib_1\hal_ktd.c"
  12  0000              _ktd_clear .section 'code'
  12  0000              _ktd_clear proc
  13  0000              #line 13 "c:\users\user\documents\htk_project\3652_adc_test_vib_1\hal_ktd.c"
  13  0000  1F00     E  	clr _WriteI2C_Int_2[4]
  13  0001  1F00     E  	clr _WriteI2C_Int_2[5]
  13  0002  0F03        	mov a,3
  13  0003  0080     E  	mov _WriteI2C_Int_2[2],a
"File: hal_ktd.c     Assembler  Version HGASM0202      Page 3

  13  0004  1F00     E  	clr _WriteI2C_Int_2[3]
  13  0005  0F68        	mov a,104
  13  0006  0080     E  	mov _WriteI2C_Int_2[0],a
  13  0007  1F00     E  	clr _WriteI2C_Int_2[1]
  13  0008  2000     E  	call _WriteI2C_Int
  14  0009              #line 14 "c:\users\user\documents\htk_project\3652_adc_test_vib_1\hal_ktd.c"
  14  0009  0F01        	mov a,1
  14  000A  0080     E  	mov _delay_2[0],a
  14  000B  1F00     E  	clr _delay_2[1]
  14  000C  2000     E  	call _delay
  15  000D              #line 15 "c:\users\user\documents\htk_project\3652_adc_test_vib_1\hal_ktd.c"
  15  000D  1F00     E  	clr _WriteI2C_Int_2[4]
  15  000E  1F00     E  	clr _WriteI2C_Int_2[5]
  15  000F  0F04        	mov a,4
  15  0010  0080     E  	mov _WriteI2C_Int_2[2],a
  15  0011  1F00     E  	clr _WriteI2C_Int_2[3]
  15  0012  0F68        	mov a,104
  15  0013  0080     E  	mov _WriteI2C_Int_2[0],a
  15  0014  1F00     E  	clr _WriteI2C_Int_2[1]
  15  0015  2000     E  	call _WriteI2C_Int
  16  0016              #line 16 "c:\users\user\documents\htk_project\3652_adc_test_vib_1\hal_ktd.c"
  16  0016  0F01        	mov a,1
  16  0017  0080     E  	mov _delay_2[0],a
  16  0018  1F00     E  	clr _delay_2[1]
  16  0019  2000     E  	call _delay
  17  001A              #line 17 "c:\users\user\documents\htk_project\3652_adc_test_vib_1\hal_ktd.c"
  17  001A  1F00     E  	clr _WriteI2C_Int_2[4]
  17  001B  1F00     E  	clr _WriteI2C_Int_2[5]
  17  001C  0F05        	mov a,5
  17  001D  0080     E  	mov _WriteI2C_Int_2[2],a
  17  001E  1F00     E  	clr _WriteI2C_Int_2[3]
  17  001F  0F68        	mov a,104
  17  0020  0080     E  	mov _WriteI2C_Int_2[0],a
  17  0021  1F00     E  	clr _WriteI2C_Int_2[1]
  17  0022  2000     E  	call _WriteI2C_Int
  18  0023              #line 18 "c:\users\user\documents\htk_project\3652_adc_test_vib_1\hal_ktd.c"
  18  0023  0F01        	mov a,1
  18  0024  0080     E  	mov _delay_2[0],a
  18  0025  1F00     E  	clr _delay_2[1]
  18  0026  2000     E  	call _delay
  19  0027              #line 19 "c:\users\user\documents\htk_project\3652_adc_test_vib_1\hal_ktd.c"
  19  0027  1F00     E  	clr _WriteI2C_Int_2[4]
  19  0028  1F00     E  	clr _WriteI2C_Int_2[5]
  19  0029  0F06        	mov a,6
  19  002A  0080     E  	mov _WriteI2C_Int_2[2],a
  19  002B  1F00     E  	clr _WriteI2C_Int_2[3]
  19  002C  0F68        	mov a,104
  19  002D  0080     E  	mov _WriteI2C_Int_2[0],a
  19  002E  1F00     E  	clr _WriteI2C_Int_2[1]
  19  002F  2000     E  	call _WriteI2C_Int
  20  0030              #line 20 "c:\users\user\documents\htk_project\3652_adc_test_vib_1\hal_ktd.c"
  20  0030  0F01        	mov a,1
  20  0031  0080     E  	mov _delay_2[0],a
  20  0032  1F00     E  	clr _delay_2[1]
  20  0033  2000     E  	call _delay
  21  0034              #line 21 "c:\users\user\documents\htk_project\3652_adc_test_vib_1\hal_ktd.c"
  21  0034  1F00     E  	clr _WriteI2C_Int_2[4]
  21  0035  1F00     E  	clr _WriteI2C_Int_2[5]
  21  0036  0F07        	mov a,7
  21  0037  0080     E  	mov _WriteI2C_Int_2[2],a
"File: hal_ktd.c     Assembler  Version HGASM0202      Page 4

  21  0038  1F00     E  	clr _WriteI2C_Int_2[3]
  21  0039  0F68        	mov a,104
  21  003A  0080     E  	mov _WriteI2C_Int_2[0],a
  21  003B  1F00     E  	clr _WriteI2C_Int_2[1]
  21  003C  2000     E  	call _WriteI2C_Int
  22  003D              #line 22 "c:\users\user\documents\htk_project\3652_adc_test_vib_1\hal_ktd.c"
  22  003D  0F01        	mov a,1
  22  003E  0080     E  	mov _delay_2[0],a
  22  003F  1F00     E  	clr _delay_2[1]
  22  0040  2000     E  	call _delay
  23  0041              #line 23 "c:\users\user\documents\htk_project\3652_adc_test_vib_1\hal_ktd.c"
  23  0041  1F00     E  	clr _WriteI2C_Int_2[4]
  23  0042  1F00     E  	clr _WriteI2C_Int_2[5]
  23  0043  0F08        	mov a,8
  23  0044  0080     E  	mov _WriteI2C_Int_2[2],a
  23  0045  1F00     E  	clr _WriteI2C_Int_2[3]
  23  0046  0F68        	mov a,104
  23  0047  0080     E  	mov _WriteI2C_Int_2[0],a
  23  0048  1F00     E  	clr _WriteI2C_Int_2[1]
  23  0049  2000     E  	call _WriteI2C_Int
  24  004A              #line 24 "c:\users\user\documents\htk_project\3652_adc_test_vib_1\hal_ktd.c"
  24  004A  0F01        	mov a,1
  24  004B  0080     E  	mov _delay_2[0],a
  24  004C  1F00     E  	clr _delay_2[1]
  24  004D  2000     E  	call _delay
  26  004E              #line 26 "c:\users\user\documents\htk_project\3652_adc_test_vib_1\hal_ktd.c"
  26  004E  1F00     E  	clr _WriteI2C_Int_2[4]
  26  004F  1F00     E  	clr _WriteI2C_Int_2[5]
  26  0050  0F09        	mov a,9
  26  0051  0080     E  	mov _WriteI2C_Int_2[2],a
  26  0052  1F00     E  	clr _WriteI2C_Int_2[3]
  26  0053  0F68        	mov a,104
  26  0054  0080     E  	mov _WriteI2C_Int_2[0],a
  26  0055  1F00     E  	clr _WriteI2C_Int_2[1]
  26  0056  2000     E  	call _WriteI2C_Int
  27  0057              #line 27 "c:\users\user\documents\htk_project\3652_adc_test_vib_1\hal_ktd.c"
  27  0057  0F01        	mov a,1
  27  0058  0080     E  	mov _delay_2[0],a
  27  0059  1F00     E  	clr _delay_2[1]
  27  005A  2000     E  	call _delay
  28  005B              #line 28 "c:\users\user\documents\htk_project\3652_adc_test_vib_1\hal_ktd.c"
  28  005B  1F00     E  	clr _WriteI2C_Int_2[4]
  28  005C  1F00     E  	clr _WriteI2C_Int_2[5]
  28  005D  0F0A        	mov a,10
  28  005E  0080     E  	mov _WriteI2C_Int_2[2],a
  28  005F  1F00     E  	clr _WriteI2C_Int_2[3]
  28  0060  0F68        	mov a,104
  28  0061  0080     E  	mov _WriteI2C_Int_2[0],a
  28  0062  1F00     E  	clr _WriteI2C_Int_2[1]
  28  0063  2000     E  	call _WriteI2C_Int
  29  0064              #line 29 "c:\users\user\documents\htk_project\3652_adc_test_vib_1\hal_ktd.c"
  29  0064  0F01        	mov a,1
  29  0065  0080     E  	mov _delay_2[0],a
  29  0066  1F00     E  	clr _delay_2[1]
  29  0067  2000     E  	call _delay
  30  0068              #line 30 "c:\users\user\documents\htk_project\3652_adc_test_vib_1\hal_ktd.c"
  30  0068  1F00     E  	clr _WriteI2C_Int_2[4]
  30  0069  1F00     E  	clr _WriteI2C_Int_2[5]
  30  006A  0F0B        	mov a,11
  30  006B  0080     E  	mov _WriteI2C_Int_2[2],a
"File: hal_ktd.c     Assembler  Version HGASM0202      Page 5

  30  006C  1F00     E  	clr _WriteI2C_Int_2[3]
  30  006D  0F68        	mov a,104
  30  006E  0080     E  	mov _WriteI2C_Int_2[0],a
  30  006F  1F00     E  	clr _WriteI2C_Int_2[1]
  30  0070  2000     E  	call _WriteI2C_Int
  31  0071              #line 31 "c:\users\user\documents\htk_project\3652_adc_test_vib_1\hal_ktd.c"
  31  0071  0F01        	mov a,1
  31  0072  0080     E  	mov _delay_2[0],a
  31  0073  1F00     E  	clr _delay_2[1]
  31  0074  2000     E  	call _delay
  32  0075              #line 32 "c:\users\user\documents\htk_project\3652_adc_test_vib_1\hal_ktd.c"
  32  0075  1F00     E  	clr _WriteI2C_Int_2[4]
  32  0076  1F00     E  	clr _WriteI2C_Int_2[5]
  32  0077  0F0C        	mov a,12
  32  0078  0080     E  	mov _WriteI2C_Int_2[2],a
  32  0079  1F00     E  	clr _WriteI2C_Int_2[3]
  32  007A  0F68        	mov a,104
  32  007B  0080     E  	mov _WriteI2C_Int_2[0],a
  32  007C  1F00     E  	clr _WriteI2C_Int_2[1]
  32  007D  2000     E  	call _WriteI2C_Int
  33  007E              #line 33 "c:\users\user\documents\htk_project\3652_adc_test_vib_1\hal_ktd.c"
  33  007E  0F01        	mov a,1
  33  007F  0080     E  	mov _delay_2[0],a
  33  0080  1F00     E  	clr _delay_2[1]
  33  0081  2000     E  	call _delay
  34  0082              #line 34 "c:\users\user\documents\htk_project\3652_adc_test_vib_1\hal_ktd.c"
  34  0082  1F00     E  	clr _WriteI2C_Int_2[4]
  34  0083  1F00     E  	clr _WriteI2C_Int_2[5]
  34  0084  0F0D        	mov a,13
  34  0085  0080     E  	mov _WriteI2C_Int_2[2],a
  34  0086  1F00     E  	clr _WriteI2C_Int_2[3]
  34  0087  0F68        	mov a,104
  34  0088  0080     E  	mov _WriteI2C_Int_2[0],a
  34  0089  1F00     E  	clr _WriteI2C_Int_2[1]
  34  008A  2000     E  	call _WriteI2C_Int
  35  008B              #line 35 "c:\users\user\documents\htk_project\3652_adc_test_vib_1\hal_ktd.c"
  35  008B  0F01        	mov a,1
  35  008C  0080     E  	mov _delay_2[0],a
  35  008D  1F00     E  	clr _delay_2[1]
  35  008E  2000     E  	call _delay
  36  008F              #line 36 "c:\users\user\documents\htk_project\3652_adc_test_vib_1\hal_ktd.c"
  36  008F  1F00     E  	clr _WriteI2C_Int_2[4]
  36  0090  1F00     E  	clr _WriteI2C_Int_2[5]
  36  0091  0F0E        	mov a,14
  36  0092  0080     E  	mov _WriteI2C_Int_2[2],a
  36  0093  1F00     E  	clr _WriteI2C_Int_2[3]
  36  0094  0F68        	mov a,104
  36  0095  0080     E  	mov _WriteI2C_Int_2[0],a
  36  0096  1F00     E  	clr _WriteI2C_Int_2[1]
  36  0097  2000     E  	call _WriteI2C_Int
  37  0098              #line 37 "c:\users\user\documents\htk_project\3652_adc_test_vib_1\hal_ktd.c"
  37  0098  0F01        	mov a,1
  37  0099  0080     E  	mov _delay_2[0],a
  37  009A  1F00     E  	clr _delay_2[1]
  37  009B  2000     E  	call _delay
  37  009C  0003        	ret
  37  009D              _ktd_clear endp
  37  009D              #line 37 "c:\users\user\documents\htk_project\3652_adc_test_vib_1\hal_ktd.c"
  37  009D              #pragma debug scope 1 1
  37  009D              public _ktd_rgb_ctrl
"File: hal_ktd.c     Assembler  Version HGASM0202      Page 6

  37  009D              #pragma debug scope 4 1
  41  009D              #line 41 "c:\users\user\documents\htk_project\3652_adc_test_vib_1\hal_ktd.c"
  41  0000              _ktd_rgb_ctrl .section 'code'
  41  0000              _ktd_rgb_ctrl proc
  41  0000              public _ktd_rgb_ctrl_2
  41  0000  0003[           local _ktd_rgb_ctrl_2 db 3 dup(?)	; 2,1
            00
            ]
  41  0000  0080     E  	mov ra,a
  41  0001              #pragma debug variable 8 4 _ktd_rgb_ctrl_2+2 "r"
  41  0001              #pragma debug variable 8 4 _ktd_rgb_ctrl_2+0 "g"
  41  0001              #pragma debug variable 8 4 _ktd_rgb_ctrl_2+1 "b"
  42  0001              #line 42 "c:\users\user\documents\htk_project\3652_adc_test_vib_1\hal_ktd.c"
  42  0001  0700     E  	mov a,ra
  42  0002  0080     E  	mov _WriteI2C_Int_2[4],a
  42  0003  1F00     E  	clr _WriteI2C_Int_2[5]
  42  0004  0F03        	mov a,3
  42  0005  0080     E  	mov _WriteI2C_Int_2[2],a
  42  0006  1F00     E  	clr _WriteI2C_Int_2[3]
  42  0007  0F68        	mov a,104
  42  0008  0080     E  	mov _WriteI2C_Int_2[0],a
  42  0009  1F00     E  	clr _WriteI2C_Int_2[1]
  42  000A  2000     E  	call _WriteI2C_Int
  43  000B              #line 43 "c:\users\user\documents\htk_project\3652_adc_test_vib_1\hal_ktd.c"
  43  000B  0F01        	mov a,1
  43  000C  0080     E  	mov _delay_2[0],a
  43  000D  1F00     E  	clr _delay_2[1]
  43  000E  2000     E  	call _delay
  44  000F              #line 44 "c:\users\user\documents\htk_project\3652_adc_test_vib_1\hal_ktd.c"
  44  000F  0700     R  	mov a,_ktd_rgb_ctrl_2[0]
  44  0010  0080     E  	mov _WriteI2C_Int_2[4],a
  44  0011  1F00     E  	clr _WriteI2C_Int_2[5]
  44  0012  0F04        	mov a,4
  44  0013  0080     E  	mov _WriteI2C_Int_2[2],a
  44  0014  1F00     E  	clr _WriteI2C_Int_2[3]
  44  0015  0F68        	mov a,104
  44  0016  0080     E  	mov _WriteI2C_Int_2[0],a
  44  0017  1F00     E  	clr _WriteI2C_Int_2[1]
  44  0018  2000     E  	call _WriteI2C_Int
  45  0019              #line 45 "c:\users\user\documents\htk_project\3652_adc_test_vib_1\hal_ktd.c"
  45  0019  0F01        	mov a,1
  45  001A  0080     E  	mov _delay_2[0],a
  45  001B  1F00     E  	clr _delay_2[1]
  45  001C  2000     E  	call _delay
  46  001D              #line 46 "c:\users\user\documents\htk_project\3652_adc_test_vib_1\hal_ktd.c"
  46  001D  0700     R  	mov a,_ktd_rgb_ctrl_2[1]
  46  001E  0080     E  	mov _WriteI2C_Int_2[4],a
  46  001F  1F00     E  	clr _WriteI2C_Int_2[5]
  46  0020  0F05        	mov a,5
  46  0021  0080     E  	mov _WriteI2C_Int_2[2],a
  46  0022  1F00     E  	clr _WriteI2C_Int_2[3]
  46  0023  0F68        	mov a,104
  46  0024  0080     E  	mov _WriteI2C_Int_2[0],a
  46  0025  1F00     E  	clr _WriteI2C_Int_2[1]
  46  0026  2000     E  	call _WriteI2C_Int
  47  0027              #line 47 "c:\users\user\documents\htk_project\3652_adc_test_vib_1\hal_ktd.c"
  47  0027  0F01        	mov a,1
  47  0028  0080     E  	mov _delay_2[0],a
  47  0029  1F00     E  	clr _delay_2[1]
  47  002A  2000     E  	call _delay
"File: hal_ktd.c     Assembler  Version HGASM0202      Page 7

  48  002B              #line 48 "c:\users\user\documents\htk_project\3652_adc_test_vib_1\hal_ktd.c"
  48  002B  1F00     E  	clr _WriteI2C_Int_2[4]
  48  002C  1F00     E  	clr _WriteI2C_Int_2[5]
  48  002D  0F06        	mov a,6
  48  002E  0080     E  	mov _WriteI2C_Int_2[2],a
  48  002F  1F00     E  	clr _WriteI2C_Int_2[3]
  48  0030  0F68        	mov a,104
  48  0031  0080     E  	mov _WriteI2C_Int_2[0],a
  48  0032  1F00     E  	clr _WriteI2C_Int_2[1]
  48  0033  2000     E  	call _WriteI2C_Int
  49  0034              #line 49 "c:\users\user\documents\htk_project\3652_adc_test_vib_1\hal_ktd.c"
  49  0034  0F01        	mov a,1
  49  0035  0080     E  	mov _delay_2[0],a
  49  0036  1F00     E  	clr _delay_2[1]
  49  0037  2000     E  	call _delay
  50  0038              #line 50 "c:\users\user\documents\htk_project\3652_adc_test_vib_1\hal_ktd.c"
  50  0038  1F00     E  	clr _WriteI2C_Int_2[4]
  50  0039  1F00     E  	clr _WriteI2C_Int_2[5]
  50  003A  0F07        	mov a,7
  50  003B  0080     E  	mov _WriteI2C_Int_2[2],a
  50  003C  1F00     E  	clr _WriteI2C_Int_2[3]
  50  003D  0F68        	mov a,104
  50  003E  0080     E  	mov _WriteI2C_Int_2[0],a
  50  003F  1F00     E  	clr _WriteI2C_Int_2[1]
  50  0040  2000     E  	call _WriteI2C_Int
  51  0041              #line 51 "c:\users\user\documents\htk_project\3652_adc_test_vib_1\hal_ktd.c"
  51  0041  0F01        	mov a,1
  51  0042  0080     E  	mov _delay_2[0],a
  51  0043  1F00     E  	clr _delay_2[1]
  51  0044  2000     E  	call _delay
  52  0045              #line 52 "c:\users\user\documents\htk_project\3652_adc_test_vib_1\hal_ktd.c"
  52  0045  1F00     E  	clr _WriteI2C_Int_2[4]
  52  0046  1F00     E  	clr _WriteI2C_Int_2[5]
  52  0047  0F08        	mov a,8
  52  0048  0080     E  	mov _WriteI2C_Int_2[2],a
  52  0049  1F00     E  	clr _WriteI2C_Int_2[3]
  52  004A  0F68        	mov a,104
  52  004B  0080     E  	mov _WriteI2C_Int_2[0],a
  52  004C  1F00     E  	clr _WriteI2C_Int_2[1]
  52  004D  2000     E  	call _WriteI2C_Int
  53  004E              #line 53 "c:\users\user\documents\htk_project\3652_adc_test_vib_1\hal_ktd.c"
  53  004E  0F01        	mov a,1
  53  004F  0080     E  	mov _delay_2[0],a
  53  0050  1F00     E  	clr _delay_2[1]
  53  0051  2000     E  	call _delay
  55  0052              #line 55 "c:\users\user\documents\htk_project\3652_adc_test_vib_1\hal_ktd.c"
  55  0052  0F88        	mov a,-120
  55  0053  0080     E  	mov _WriteI2C_Int_2[4],a
  55  0054  1F00     E  	clr _WriteI2C_Int_2[5]
  55  0055  0F09        	mov a,9
  55  0056  0080     E  	mov _WriteI2C_Int_2[2],a
  55  0057  1F00     E  	clr _WriteI2C_Int_2[3]
  55  0058  0F68        	mov a,104
  55  0059  0080     E  	mov _WriteI2C_Int_2[0],a
  55  005A  1F00     E  	clr _WriteI2C_Int_2[1]
  55  005B  2000     E  	call _WriteI2C_Int
  56  005C              #line 56 "c:\users\user\documents\htk_project\3652_adc_test_vib_1\hal_ktd.c"
  56  005C  0F01        	mov a,1
  56  005D  0080     E  	mov _delay_2[0],a
  56  005E  1F00     E  	clr _delay_2[1]
"File: hal_ktd.c     Assembler  Version HGASM0202      Page 8

  56  005F  2000     E  	call _delay
  57  0060              #line 57 "c:\users\user\documents\htk_project\3652_adc_test_vib_1\hal_ktd.c"
  57  0060  0F88        	mov a,-120
  57  0061  0080     E  	mov _WriteI2C_Int_2[4],a
  57  0062  1F00     E  	clr _WriteI2C_Int_2[5]
  57  0063  0F0A        	mov a,10
  57  0064  0080     E  	mov _WriteI2C_Int_2[2],a
  57  0065  1F00     E  	clr _WriteI2C_Int_2[3]
  57  0066  0F68        	mov a,104
  57  0067  0080     E  	mov _WriteI2C_Int_2[0],a
  57  0068  1F00     E  	clr _WriteI2C_Int_2[1]
  57  0069  2000     E  	call _WriteI2C_Int
  58  006A              #line 58 "c:\users\user\documents\htk_project\3652_adc_test_vib_1\hal_ktd.c"
  58  006A  0F01        	mov a,1
  58  006B  0080     E  	mov _delay_2[0],a
  58  006C  1F00     E  	clr _delay_2[1]
  58  006D  2000     E  	call _delay
  59  006E              #line 59 "c:\users\user\documents\htk_project\3652_adc_test_vib_1\hal_ktd.c"
  59  006E  0F88        	mov a,-120
  59  006F  0080     E  	mov _WriteI2C_Int_2[4],a
  59  0070  1F00     E  	clr _WriteI2C_Int_2[5]
  59  0071  0F0B        	mov a,11
  59  0072  0080     E  	mov _WriteI2C_Int_2[2],a
  59  0073  1F00     E  	clr _WriteI2C_Int_2[3]
  59  0074  0F68        	mov a,104
  59  0075  0080     E  	mov _WriteI2C_Int_2[0],a
  59  0076  1F00     E  	clr _WriteI2C_Int_2[1]
  59  0077  2000     E  	call _WriteI2C_Int
  60  0078              #line 60 "c:\users\user\documents\htk_project\3652_adc_test_vib_1\hal_ktd.c"
  60  0078  0F01        	mov a,1
  60  0079  0080     E  	mov _delay_2[0],a
  60  007A  1F00     E  	clr _delay_2[1]
  60  007B  2000     E  	call _delay
  61  007C              #line 61 "c:\users\user\documents\htk_project\3652_adc_test_vib_1\hal_ktd.c"
  61  007C  0F88        	mov a,-120
  61  007D  0080     E  	mov _WriteI2C_Int_2[4],a
  61  007E  1F00     E  	clr _WriteI2C_Int_2[5]
  61  007F  0F0C        	mov a,12
  61  0080  0080     E  	mov _WriteI2C_Int_2[2],a
  61  0081  1F00     E  	clr _WriteI2C_Int_2[3]
  61  0082  0F68        	mov a,104
  61  0083  0080     E  	mov _WriteI2C_Int_2[0],a
  61  0084  1F00     E  	clr _WriteI2C_Int_2[1]
  61  0085  2000     E  	call _WriteI2C_Int
  62  0086              #line 62 "c:\users\user\documents\htk_project\3652_adc_test_vib_1\hal_ktd.c"
  62  0086  0F01        	mov a,1
  62  0087  0080     E  	mov _delay_2[0],a
  62  0088  1F00     E  	clr _delay_2[1]
  62  0089  2000     E  	call _delay
  63  008A              #line 63 "c:\users\user\documents\htk_project\3652_adc_test_vib_1\hal_ktd.c"
  63  008A  0F88        	mov a,-120
  63  008B  0080     E  	mov _WriteI2C_Int_2[4],a
  63  008C  1F00     E  	clr _WriteI2C_Int_2[5]
  63  008D  0F0D        	mov a,13
  63  008E  0080     E  	mov _WriteI2C_Int_2[2],a
  63  008F  1F00     E  	clr _WriteI2C_Int_2[3]
  63  0090  0F68        	mov a,104
  63  0091  0080     E  	mov _WriteI2C_Int_2[0],a
  63  0092  1F00     E  	clr _WriteI2C_Int_2[1]
  63  0093  2000     E  	call _WriteI2C_Int
"File: hal_ktd.c     Assembler  Version HGASM0202      Page 9

  64  0094              #line 64 "c:\users\user\documents\htk_project\3652_adc_test_vib_1\hal_ktd.c"
  64  0094  0F01        	mov a,1
  64  0095  0080     E  	mov _delay_2[0],a
  64  0096  1F00     E  	clr _delay_2[1]
  64  0097  2000     E  	call _delay
  65  0098              #line 65 "c:\users\user\documents\htk_project\3652_adc_test_vib_1\hal_ktd.c"
  65  0098  0F88        	mov a,-120
  65  0099  0080     E  	mov _WriteI2C_Int_2[4],a
  65  009A  1F00     E  	clr _WriteI2C_Int_2[5]
  65  009B  0F0E        	mov a,14
  65  009C  0080     E  	mov _WriteI2C_Int_2[2],a
  65  009D  1F00     E  	clr _WriteI2C_Int_2[3]
  65  009E  0F68        	mov a,104
  65  009F  0080     E  	mov _WriteI2C_Int_2[0],a
  65  00A0  1F00     E  	clr _WriteI2C_Int_2[1]
  65  00A1  2000     E  	call _WriteI2C_Int
  66  00A2              #line 66 "c:\users\user\documents\htk_project\3652_adc_test_vib_1\hal_ktd.c"
  66  00A2  0F01        	mov a,1
  66  00A3  0080     E  	mov _delay_2[0],a
  66  00A4  1F00     E  	clr _delay_2[1]
  66  00A5  2000     E  	call _delay
  66  00A6  0003        	ret
  66  00A7              _ktd_rgb_ctrl endp
  66  00A7              #line 66 "c:\users\user\documents\htk_project\3652_adc_test_vib_1\hal_ktd.c"
  66  00A7              #pragma debug scope 1 1
  66  00A7              public _ktd_ring
  66  00A7              #pragma debug scope 5 1
  73  00A7              #line 73 "c:\users\user\documents\htk_project\3652_adc_test_vib_1\hal_ktd.c"
  73  0000              _ktd_ring .section 'code'
  73  0000              _ktd_ring proc
  73  0000              public _ktd_ring_2
  73  0000  0009[           local _ktd_ring_2 db 9 dup(?)	; 8,1
            00
            ]
  73  0000  0080     E  	mov ra,a
  73  0001              #pragma debug variable 8 5 _ktd_ring_2+8 "r"
  73  0001              #pragma debug variable 8 5 _ktd_ring_2+0 "g"
  73  0001              #pragma debug variable 8 5 _ktd_ring_2+1 "b"
  73  0001              #pragma debug variable 8 5 _ktd_ring_2+2 "a12"
  73  0001              #pragma debug variable 8 5 _ktd_ring_2+3 "a32"
  73  0001              #pragma debug variable 8 5 _ktd_ring_2+4 "b12"
  73  0001              #pragma debug variable 8 5 _ktd_ring_2+5 "b32"
  73  0001              #pragma debug variable 8 5 _ktd_ring_2+6 "c12"
  73  0001              #pragma debug variable 8 5 _ktd_ring_2+7 "c32"
  74  0001              #line 74 "c:\users\user\documents\htk_project\3652_adc_test_vib_1\hal_ktd.c"
  74  0001  0700     E  	mov a,ra
  74  0002  0080     E  	mov _WriteI2C_Int_2[4],a
  74  0003  1F00     E  	clr _WriteI2C_Int_2[5]
  74  0004  0F03        	mov a,3
  74  0005  0080     E  	mov _WriteI2C_Int_2[2],a
  74  0006  1F00     E  	clr _WriteI2C_Int_2[3]
  74  0007  0F68        	mov a,104
  74  0008  0080     E  	mov _WriteI2C_Int_2[0],a
  74  0009  1F00     E  	clr _WriteI2C_Int_2[1]
  74  000A  2000     E  	call _WriteI2C_Int
  75  000B              #line 75 "c:\users\user\documents\htk_project\3652_adc_test_vib_1\hal_ktd.c"
  75  000B  0F01        	mov a,1
  75  000C  0080     E  	mov _delay_2[0],a
  75  000D  1F00     E  	clr _delay_2[1]
  75  000E  2000     E  	call _delay
"File: hal_ktd.c     Assembler  Version HGASM0202      Page 10

  76  000F              #line 76 "c:\users\user\documents\htk_project\3652_adc_test_vib_1\hal_ktd.c"
  76  000F  0700     R  	mov a,_ktd_ring_2[0]
  76  0010  0080     E  	mov _WriteI2C_Int_2[4],a
  76  0011  1F00     E  	clr _WriteI2C_Int_2[5]
  76  0012  0F04        	mov a,4
  76  0013  0080     E  	mov _WriteI2C_Int_2[2],a
  76  0014  1F00     E  	clr _WriteI2C_Int_2[3]
  76  0015  0F68        	mov a,104
  76  0016  0080     E  	mov _WriteI2C_Int_2[0],a
  76  0017  1F00     E  	clr _WriteI2C_Int_2[1]
  76  0018  2000     E  	call _WriteI2C_Int
  77  0019              #line 77 "c:\users\user\documents\htk_project\3652_adc_test_vib_1\hal_ktd.c"
  77  0019  0F01        	mov a,1
  77  001A  0080     E  	mov _delay_2[0],a
  77  001B  1F00     E  	clr _delay_2[1]
  77  001C  2000     E  	call _delay
  78  001D              #line 78 "c:\users\user\documents\htk_project\3652_adc_test_vib_1\hal_ktd.c"
  78  001D  0700     R  	mov a,_ktd_ring_2[1]
  78  001E  0080     E  	mov _WriteI2C_Int_2[4],a
  78  001F  1F00     E  	clr _WriteI2C_Int_2[5]
  78  0020  0F05        	mov a,5
  78  0021  0080     E  	mov _WriteI2C_Int_2[2],a
  78  0022  1F00     E  	clr _WriteI2C_Int_2[3]
  78  0023  0F68        	mov a,104
  78  0024  0080     E  	mov _WriteI2C_Int_2[0],a
  78  0025  1F00     E  	clr _WriteI2C_Int_2[1]
  78  0026  2000     E  	call _WriteI2C_Int
  79  0027              #line 79 "c:\users\user\documents\htk_project\3652_adc_test_vib_1\hal_ktd.c"
  79  0027  0F01        	mov a,1
  79  0028  0080     E  	mov _delay_2[0],a
  79  0029  1F00     E  	clr _delay_2[1]
  79  002A  2000     E  	call _delay
  80  002B              #line 80 "c:\users\user\documents\htk_project\3652_adc_test_vib_1\hal_ktd.c"
  80  002B  1F00     E  	clr _WriteI2C_Int_2[4]
  80  002C  1F00     E  	clr _WriteI2C_Int_2[5]
  80  002D  0F06        	mov a,6
  80  002E  0080     E  	mov _WriteI2C_Int_2[2],a
  80  002F  1F00     E  	clr _WriteI2C_Int_2[3]
  80  0030  0F68        	mov a,104
  80  0031  0080     E  	mov _WriteI2C_Int_2[0],a
  80  0032  1F00     E  	clr _WriteI2C_Int_2[1]
  80  0033  2000     E  	call _WriteI2C_Int
  81  0034              #line 81 "c:\users\user\documents\htk_project\3652_adc_test_vib_1\hal_ktd.c"
  81  0034  0F01        	mov a,1
  81  0035  0080     E  	mov _delay_2[0],a
  81  0036  1F00     E  	clr _delay_2[1]
  81  0037  2000     E  	call _delay
  82  0038              #line 82 "c:\users\user\documents\htk_project\3652_adc_test_vib_1\hal_ktd.c"
  82  0038  1F00     E  	clr _WriteI2C_Int_2[4]
  82  0039  1F00     E  	clr _WriteI2C_Int_2[5]
  82  003A  0F07        	mov a,7
  82  003B  0080     E  	mov _WriteI2C_Int_2[2],a
  82  003C  1F00     E  	clr _WriteI2C_Int_2[3]
  82  003D  0F68        	mov a,104
  82  003E  0080     E  	mov _WriteI2C_Int_2[0],a
  82  003F  1F00     E  	clr _WriteI2C_Int_2[1]
  82  0040  2000     E  	call _WriteI2C_Int
  83  0041              #line 83 "c:\users\user\documents\htk_project\3652_adc_test_vib_1\hal_ktd.c"
  83  0041  0F01        	mov a,1
  83  0042  0080     E  	mov _delay_2[0],a
"File: hal_ktd.c     Assembler  Version HGASM0202      Page 11

  83  0043  1F00     E  	clr _delay_2[1]
  83  0044  2000     E  	call _delay
  84  0045              #line 84 "c:\users\user\documents\htk_project\3652_adc_test_vib_1\hal_ktd.c"
  84  0045  1F00     E  	clr _WriteI2C_Int_2[4]
  84  0046  1F00     E  	clr _WriteI2C_Int_2[5]
  84  0047  0F08        	mov a,8
  84  0048  0080     E  	mov _WriteI2C_Int_2[2],a
  84  0049  1F00     E  	clr _WriteI2C_Int_2[3]
  84  004A  0F68        	mov a,104
  84  004B  0080     E  	mov _WriteI2C_Int_2[0],a
  84  004C  1F00     E  	clr _WriteI2C_Int_2[1]
  84  004D  2000     E  	call _WriteI2C_Int
  85  004E              #line 85 "c:\users\user\documents\htk_project\3652_adc_test_vib_1\hal_ktd.c"
  85  004E  0F01        	mov a,1
  85  004F  0080     E  	mov _delay_2[0],a
  85  0050  1F00     E  	clr _delay_2[1]
  85  0051  2000     E  	call _delay
  87  0052              #line 87 "c:\users\user\documents\htk_project\3652_adc_test_vib_1\hal_ktd.c"
  87  0052  0700     R  	mov a,_ktd_ring_2[2]
  87  0053  0080     E  	mov _WriteI2C_Int_2[4],a
  87  0054  1F00     E  	clr _WriteI2C_Int_2[5]
  87  0055  0F09        	mov a,9
  87  0056  0080     E  	mov _WriteI2C_Int_2[2],a
  87  0057  1F00     E  	clr _WriteI2C_Int_2[3]
  87  0058  0F68        	mov a,104
  87  0059  0080     E  	mov _WriteI2C_Int_2[0],a
  87  005A  1F00     E  	clr _WriteI2C_Int_2[1]
  87  005B  2000     E  	call _WriteI2C_Int
  88  005C              #line 88 "c:\users\user\documents\htk_project\3652_adc_test_vib_1\hal_ktd.c"
  88  005C  0F01        	mov a,1
  88  005D  0080     E  	mov _delay_2[0],a
  88  005E  1F00     E  	clr _delay_2[1]
  88  005F  2000     E  	call _delay
  89  0060              #line 89 "c:\users\user\documents\htk_project\3652_adc_test_vib_1\hal_ktd.c"
  89  0060  0700     R  	mov a,_ktd_ring_2[3]
  89  0061  0080     E  	mov _WriteI2C_Int_2[4],a
  89  0062  1F00     E  	clr _WriteI2C_Int_2[5]
  89  0063  0F0A        	mov a,10
  89  0064  0080     E  	mov _WriteI2C_Int_2[2],a
  89  0065  1F00     E  	clr _WriteI2C_Int_2[3]
  89  0066  0F68        	mov a,104
  89  0067  0080     E  	mov _WriteI2C_Int_2[0],a
  89  0068  1F00     E  	clr _WriteI2C_Int_2[1]
  89  0069  2000     E  	call _WriteI2C_Int
  90  006A              #line 90 "c:\users\user\documents\htk_project\3652_adc_test_vib_1\hal_ktd.c"
  90  006A  0F01        	mov a,1
  90  006B  0080     E  	mov _delay_2[0],a
  90  006C  1F00     E  	clr _delay_2[1]
  90  006D  2000     E  	call _delay
  91  006E              #line 91 "c:\users\user\documents\htk_project\3652_adc_test_vib_1\hal_ktd.c"
  91  006E  0700     R  	mov a,_ktd_ring_2[4]
  91  006F  0080     E  	mov _WriteI2C_Int_2[4],a
  91  0070  1F00     E  	clr _WriteI2C_Int_2[5]
  91  0071  0F0B        	mov a,11
  91  0072  0080     E  	mov _WriteI2C_Int_2[2],a
  91  0073  1F00     E  	clr _WriteI2C_Int_2[3]
  91  0074  0F68        	mov a,104
  91  0075  0080     E  	mov _WriteI2C_Int_2[0],a
  91  0076  1F00     E  	clr _WriteI2C_Int_2[1]
  91  0077  2000     E  	call _WriteI2C_Int
"File: hal_ktd.c     Assembler  Version HGASM0202      Page 12

  92  0078              #line 92 "c:\users\user\documents\htk_project\3652_adc_test_vib_1\hal_ktd.c"
  92  0078  0F01        	mov a,1
  92  0079  0080     E  	mov _delay_2[0],a
  92  007A  1F00     E  	clr _delay_2[1]
  92  007B  2000     E  	call _delay
  93  007C              #line 93 "c:\users\user\documents\htk_project\3652_adc_test_vib_1\hal_ktd.c"
  93  007C  0700     R  	mov a,_ktd_ring_2[5]
  93  007D  0080     E  	mov _WriteI2C_Int_2[4],a
  93  007E  1F00     E  	clr _WriteI2C_Int_2[5]
  93  007F  0F0C        	mov a,12
  93  0080  0080     E  	mov _WriteI2C_Int_2[2],a
  93  0081  1F00     E  	clr _WriteI2C_Int_2[3]
  93  0082  0F68        	mov a,104
  93  0083  0080     E  	mov _WriteI2C_Int_2[0],a
  93  0084  1F00     E  	clr _WriteI2C_Int_2[1]
  93  0085  2000     E  	call _WriteI2C_Int
  94  0086              #line 94 "c:\users\user\documents\htk_project\3652_adc_test_vib_1\hal_ktd.c"
  94  0086  0F01        	mov a,1
  94  0087  0080     E  	mov _delay_2[0],a
  94  0088  1F00     E  	clr _delay_2[1]
  94  0089  2000     E  	call _delay
  95  008A              #line 95 "c:\users\user\documents\htk_project\3652_adc_test_vib_1\hal_ktd.c"
  95  008A  0700     R  	mov a,_ktd_ring_2[6]
  95  008B  0080     E  	mov _WriteI2C_Int_2[4],a
  95  008C  1F00     E  	clr _WriteI2C_Int_2[5]
  95  008D  0F0D        	mov a,13
  95  008E  0080     E  	mov _WriteI2C_Int_2[2],a
  95  008F  1F00     E  	clr _WriteI2C_Int_2[3]
  95  0090  0F68        	mov a,104
  95  0091  0080     E  	mov _WriteI2C_Int_2[0],a
  95  0092  1F00     E  	clr _WriteI2C_Int_2[1]
  95  0093  2000     E  	call _WriteI2C_Int
  96  0094              #line 96 "c:\users\user\documents\htk_project\3652_adc_test_vib_1\hal_ktd.c"
  96  0094  0F01        	mov a,1
  96  0095  0080     E  	mov _delay_2[0],a
  96  0096  1F00     E  	clr _delay_2[1]
  96  0097  2000     E  	call _delay
  97  0098              #line 97 "c:\users\user\documents\htk_project\3652_adc_test_vib_1\hal_ktd.c"
  97  0098  0700     R  	mov a,_ktd_ring_2[7]
  97  0099  0080     E  	mov _WriteI2C_Int_2[4],a
  97  009A  1F00     E  	clr _WriteI2C_Int_2[5]
  97  009B  0F0E        	mov a,14
  97  009C  0080     E  	mov _WriteI2C_Int_2[2],a
  97  009D  1F00     E  	clr _WriteI2C_Int_2[3]
  97  009E  0F68        	mov a,104
  97  009F  0080     E  	mov _WriteI2C_Int_2[0],a
  97  00A0  1F00     E  	clr _WriteI2C_Int_2[1]
  97  00A1  2000     E  	call _WriteI2C_Int
  98  00A2              #line 98 "c:\users\user\documents\htk_project\3652_adc_test_vib_1\hal_ktd.c"
  98  00A2  0F01        	mov a,1
  98  00A3  0080     E  	mov _delay_2[0],a
  98  00A4  1F00     E  	clr _delay_2[1]
  98  00A5  2000     E  	call _delay
  98  00A6  0003        	ret
  98  00A7              _ktd_ring endp
  98  00A7              #line 98 "c:\users\user\documents\htk_project\3652_adc_test_vib_1\hal_ktd.c"
  98  00A7              #pragma debug scope 1 1
  98  00A7              public _ktd_clockwise_ring
  98  00A7              #pragma debug scope 6 1
 102  00A7              #line 102 "c:\users\user\documents\htk_project\3652_adc_test_vib_1\hal_ktd.c"
"File: hal_ktd.c     Assembler  Version HGASM0202      Page 13

 102  0000              _ktd_clockwise_ring .section 'code'
 102  0000              _ktd_clockwise_ring proc
 102  0000              public _ktd_clockwise_ring_2
 102  0000  0007[           local _ktd_clockwise_ring_2 db 7 dup(?)	; 4,3
            00
            ]
 102  0000  0080     R  	mov _ktd_clockwise_ring_2[4],a
 102  0001              #pragma debug variable 8 6 _ktd_clockwise_ring_2+4 "r"
 102  0001              #pragma debug variable 8 6 _ktd_clockwise_ring_2+0 "g"
 102  0001              #pragma debug variable 8 6 _ktd_clockwise_ring_2+1 "b"
 102  0001              #pragma debug variable 11 6 _ktd_clockwise_ring_2+2 "msDelay"
 102  0001              #pragma debug variable 11 6 _ktd_clockwise_ring_2+5 "i"
 104  0001              #line 104 "c:\users\user\documents\htk_project\3652_adc_test_vib_1\hal_ktd.c"
 104  0001  1F00     R  	clr _ktd_clockwise_ring_2[5]
 104  0002  1F00     R  	clr _ktd_clockwise_ring_2[6]
 104  0003              _L20:
 106  0003              #line 106 "c:\users\user\documents\htk_project\3652_adc_test_vib_1\hal_ktd.c"
 106  0003  0700     R  	mov a,_ktd_clockwise_ring_2[5]
 106  0004  0C01        	xor a,1
 106  0005  0500     R  	or a,_ktd_clockwise_ring_2[6]
 106  0006  3D0A        	sz z
 106  0007  2800     R  	jmp _L7
 106  0008  0700     R  	mov a,_ktd_clockwise_ring_2[5]
 106  0009  0C02        	xor a,2
 106  000A  0500     R  	or a,_ktd_clockwise_ring_2[6]
 106  000B  3D0A        	sz z
 106  000C  2800     R  	jmp _L8
 106  000D  0700     R  	mov a,_ktd_clockwise_ring_2[5]
 106  000E  0C03        	xor a,3
 106  000F  0500     R  	or a,_ktd_clockwise_ring_2[6]
 106  0010  3D0A        	sz z
 106  0011  2800     R  	jmp _L9
 106  0012  0700     R  	mov a,_ktd_clockwise_ring_2[5]
 106  0013  0C04        	xor a,4
 106  0014  0500     R  	or a,_ktd_clockwise_ring_2[6]
 106  0015  3D0A        	sz z
 106  0016  2800     R  	jmp _L10
 106  0017  0700     R  	mov a,_ktd_clockwise_ring_2[5]
 106  0018  0C05        	xor a,5
 106  0019  0500     R  	or a,_ktd_clockwise_ring_2[6]
 106  001A  3D0A        	sz z
 106  001B  2800     R  	jmp _L11
 106  001C  0700     R  	mov a,_ktd_clockwise_ring_2[5]
 106  001D  0C06        	xor a,6
 106  001E  0500     R  	or a,_ktd_clockwise_ring_2[6]
 106  001F  3D0A        	sz z
 106  0020  2800     R  	jmp _L12
 106  0021  0700     R  	mov a,_ktd_clockwise_ring_2[5]
 106  0022  0C07        	xor a,7
 106  0023  0500     R  	or a,_ktd_clockwise_ring_2[6]
 106  0024  3D0A        	sz z
 106  0025  2800     R  	jmp _L13
 106  0026  0700     R  	mov a,_ktd_clockwise_ring_2[5]
 106  0027  0C08        	xor a,8
 106  0028  0500     R  	or a,_ktd_clockwise_ring_2[6]
 106  0029  3D0A        	sz z
 106  002A  2800     R  	jmp _L14
 106  002B  0700     R  	mov a,_ktd_clockwise_ring_2[5]
 106  002C  0C09        	xor a,9
 106  002D  0500     R  	or a,_ktd_clockwise_ring_2[6]
"File: hal_ktd.c     Assembler  Version HGASM0202      Page 14

 106  002E  3D0A        	sz z
 106  002F  2800     R  	jmp _L15
 106  0030  0700     R  	mov a,_ktd_clockwise_ring_2[5]
 106  0031  0C0A        	xor a,10
 106  0032  0500     R  	or a,_ktd_clockwise_ring_2[6]
 106  0033  3D0A        	sz z
 106  0034  2800     R  	jmp _L16
 106  0035  0700     R  	mov a,_ktd_clockwise_ring_2[5]
 106  0036  0C0B        	xor a,11
 106  0037  0500     R  	or a,_ktd_clockwise_ring_2[6]
 106  0038  3D0A        	sz z
 106  0039  2800     R  	jmp _L17
 109  003A              #line 109 "c:\users\user\documents\htk_project\3652_adc_test_vib_1\hal_ktd.c"
 109  003A  1F00     R  	clr _ktd_ring_2[7]
 109  003B  1F00     R  	clr _ktd_ring_2[6]
 109  003C  1F00     R  	clr _ktd_ring_2[5]
 109  003D  1F00     R  	clr _ktd_ring_2[4]
 109  003E  1F00     R  	clr _ktd_ring_2[3]
 109  003F  0F87        	mov a,135
 109  0040  0080     R  	mov _ktd_ring_2[2],a
 109  0041  2800     R  	jmp _L26
 109  0042              _L7:
 116  0042              #line 116 "c:\users\user\documents\htk_project\3652_adc_test_vib_1\hal_ktd.c"
 116  0042  1F00     R  	clr _ktd_ring_2[7]
 116  0043  1F00     R  	clr _ktd_ring_2[6]
 116  0044  1F00     R  	clr _ktd_ring_2[5]
 116  0045  1F00     R  	clr _ktd_ring_2[4]
 116  0046  1F00     R  	clr _ktd_ring_2[3]
 116  0047  0F78        	mov a,120
 116  0048  0080     R  	mov _ktd_ring_2[2],a
 116  0049  2800     R  	jmp _L26
 116  004A              _L8:
 123  004A              #line 123 "c:\users\user\documents\htk_project\3652_adc_test_vib_1\hal_ktd.c"
 123  004A  1F00     R  	clr _ktd_ring_2[7]
 123  004B  1F00     R  	clr _ktd_ring_2[6]
 123  004C  1F00     R  	clr _ktd_ring_2[5]
 123  004D  1F00     R  	clr _ktd_ring_2[4]
 123  004E  0F87        	mov a,135
 123  004F  0080     R  	mov _ktd_ring_2[3],a
 123  0050  2800     R  	jmp _L25
 123  0051              _L9:
 130  0051              #line 130 "c:\users\user\documents\htk_project\3652_adc_test_vib_1\hal_ktd.c"
 130  0051  1F00     R  	clr _ktd_ring_2[7]
 130  0052  1F00     R  	clr _ktd_ring_2[6]
 130  0053  1F00     R  	clr _ktd_ring_2[5]
 130  0054  1F00     R  	clr _ktd_ring_2[4]
 130  0055  0F78        	mov a,120
 130  0056  0080     R  	mov _ktd_ring_2[3],a
 130  0057  2800     R  	jmp _L25
 130  0058              _L10:
 137  0058              #line 137 "c:\users\user\documents\htk_project\3652_adc_test_vib_1\hal_ktd.c"
 137  0058  1F00     R  	clr _ktd_ring_2[7]
 137  0059  1F00     R  	clr _ktd_ring_2[6]
 137  005A  1F00     R  	clr _ktd_ring_2[5]
 137  005B  0F87        	mov a,135
 137  005C  0080     R  	mov _ktd_ring_2[4],a
 137  005D  2800     R  	jmp _L24
 137  005E              _L11:
 144  005E              #line 144 "c:\users\user\documents\htk_project\3652_adc_test_vib_1\hal_ktd.c"
 144  005E  1F00     R  	clr _ktd_ring_2[7]
"File: hal_ktd.c     Assembler  Version HGASM0202      Page 15

 144  005F  1F00     R  	clr _ktd_ring_2[6]
 144  0060  1F00     R  	clr _ktd_ring_2[5]
 144  0061  0F78        	mov a,120
 144  0062  0080     R  	mov _ktd_ring_2[4],a
 144  0063  2800     R  	jmp _L24
 144  0064              _L12:
 151  0064              #line 151 "c:\users\user\documents\htk_project\3652_adc_test_vib_1\hal_ktd.c"
 151  0064  1F00     R  	clr _ktd_ring_2[7]
 151  0065  1F00     R  	clr _ktd_ring_2[6]
 151  0066  0F87        	mov a,135
 151  0067  0080     R  	mov _ktd_ring_2[5],a
 151  0068  2800     R  	jmp _L23
 151  0069              _L13:
 158  0069              #line 158 "c:\users\user\documents\htk_project\3652_adc_test_vib_1\hal_ktd.c"
 158  0069  1F00     R  	clr _ktd_ring_2[7]
 158  006A  1F00     R  	clr _ktd_ring_2[6]
 158  006B  0F78        	mov a,120
 158  006C  0080     R  	mov _ktd_ring_2[5],a
 158  006D  2800     R  	jmp _L23
 158  006E              _L14:
 165  006E              #line 165 "c:\users\user\documents\htk_project\3652_adc_test_vib_1\hal_ktd.c"
 165  006E  1F00     R  	clr _ktd_ring_2[7]
 165  006F  0F87        	mov a,135
 165  0070  0080     R  	mov _ktd_ring_2[6],a
 165  0071  2800     R  	jmp _L21
 165  0072              _L15:
 172  0072              #line 172 "c:\users\user\documents\htk_project\3652_adc_test_vib_1\hal_ktd.c"
 172  0072  1F00     R  	clr _ktd_ring_2[7]
 172  0073  0F78        	mov a,120
 172  0074  0080     R  	mov _ktd_ring_2[6],a
 172  0075  2800     R  	jmp _L21
 172  0076              _L16:
 179  0076              #line 179 "c:\users\user\documents\htk_project\3652_adc_test_vib_1\hal_ktd.c"
 179  0076  0F87        	mov a,135
 179  0077  0080     R  	mov _ktd_ring_2[7],a
 179  0078  2800     R  	jmp _L22
 179  0079              _L17:
 186  0079              #line 186 "c:\users\user\documents\htk_project\3652_adc_test_vib_1\hal_ktd.c"
 186  0079  0F78        	mov a,120
 186  007A  0080     R  	mov _ktd_ring_2[7],a
 186  007B              _L22:
 186  007B  1F00     R  	clr _ktd_ring_2[6]
 186  007C              _L21:
 186  007C  1F00     R  	clr _ktd_ring_2[5]
 186  007D              _L23:
 186  007D  1F00     R  	clr _ktd_ring_2[4]
 186  007E              _L24:
 186  007E  1F00     R  	clr _ktd_ring_2[3]
 186  007F              _L25:
 186  007F  1F00     R  	clr _ktd_ring_2[2]
 186  0080              _L26:
 186  0080  0700     R  	mov a,_ktd_clockwise_ring_2[1]
 186  0081  0080     R  	mov _ktd_ring_2[1],a
 186  0082  0700     R  	mov a,_ktd_clockwise_ring_2[0]
 186  0083  0080     R  	mov _ktd_ring_2[0],a
 186  0084  0700     R  	mov a,_ktd_clockwise_ring_2[4]
 186  0085  2000     R  	call _ktd_ring
 192  0086              #line 192 "c:\users\user\documents\htk_project\3652_adc_test_vib_1\hal_ktd.c"
 192  0086  0700     R  	mov a,_ktd_clockwise_ring_2[2]
 192  0087  0080     E  	mov _delay_2[0],a
"File: hal_ktd.c     Assembler  Version HGASM0202      Page 16

 192  0088  0700     R  	mov a,_ktd_clockwise_ring_2[3]
 192  0089  0080     E  	mov _delay_2[1],a
 192  008A  2000     E  	call _delay
 104  008B              #line 104 "c:\users\user\documents\htk_project\3652_adc_test_vib_1\hal_ktd.c"
 104  008B  1480     R  	inc _ktd_clockwise_ring_2[5]
 104  008C  3D0A        	sz z
 104  008D  1480     R  	inc _ktd_clockwise_ring_2[6]
 104  008E  0700     R  	mov a,_ktd_clockwise_ring_2[5]
 104  008F  0C0C        	xor a,12
 104  0090  0500     R  	or a,_ktd_clockwise_ring_2[6]
 104  0091  390A        	snz z
 104  0092  2800     R  	jmp _L20
 104  0093  0003        	ret
 104  0094              _ktd_clockwise_ring endp
 104  0094              #line 104 "c:\users\user\documents\htk_project\3652_adc_test_vib_1\hal_ktd.c"
 104  0094              #pragma debug scope 1 1
 104  0094              public _ktd_anticlockwise_ring
 104  0094              #pragma debug scope 7 1
 198  0094              #line 198 "c:\users\user\documents\htk_project\3652_adc_test_vib_1\hal_ktd.c"
 198  0000              _ktd_anticlockwise_ring .section 'code'
 198  0000              _ktd_anticlockwise_ring proc
 198  0000              public _ktd_anticlockwise_ring_2
 198  0000  0007[           local _ktd_anticlockwise_ring_2 db 7 dup(?)	; 4,3
            00
            ]
 198  0000  0080     R  	mov _ktd_anticlockwise_ring_2[4],a
 198  0001              #pragma debug variable 8 7 _ktd_anticlockwise_ring_2+4 "r"
 198  0001              #pragma debug variable 8 7 _ktd_anticlockwise_ring_2+0 "g"
 198  0001              #pragma debug variable 8 7 _ktd_anticlockwise_ring_2+1 "b"
 198  0001              #pragma debug variable 11 7 _ktd_anticlockwise_ring_2+2 "msDelay"
 198  0001              #pragma debug variable 11 7 _ktd_anticlockwise_ring_2+5 "i"
 200  0001              #line 200 "c:\users\user\documents\htk_project\3652_adc_test_vib_1\hal_ktd.c"
 200  0001  1F00     R  	clr _ktd_anticlockwise_ring_2[5]
 200  0002  1F00     R  	clr _ktd_anticlockwise_ring_2[6]
 200  0003              _L43:
 202  0003              #line 202 "c:\users\user\documents\htk_project\3652_adc_test_vib_1\hal_ktd.c"
 202  0003  0700     R  	mov a,_ktd_anticlockwise_ring_2[5]
 202  0004  0C01        	xor a,1
 202  0005  0500     R  	or a,_ktd_anticlockwise_ring_2[6]
 202  0006  3D0A        	sz z
 202  0007  2800     R  	jmp _L30
 202  0008  0700     R  	mov a,_ktd_anticlockwise_ring_2[5]
 202  0009  0C02        	xor a,2
 202  000A  0500     R  	or a,_ktd_anticlockwise_ring_2[6]
 202  000B  3D0A        	sz z
 202  000C  2800     R  	jmp _L31
 202  000D  0700     R  	mov a,_ktd_anticlockwise_ring_2[5]
 202  000E  0C03        	xor a,3
 202  000F  0500     R  	or a,_ktd_anticlockwise_ring_2[6]
 202  0010  3D0A        	sz z
 202  0011  2800     R  	jmp _L32
 202  0012  0700     R  	mov a,_ktd_anticlockwise_ring_2[5]
 202  0013  0C04        	xor a,4
 202  0014  0500     R  	or a,_ktd_anticlockwise_ring_2[6]
 202  0015  3D0A        	sz z
 202  0016  2800     R  	jmp _L33
 202  0017  0700     R  	mov a,_ktd_anticlockwise_ring_2[5]
 202  0018  0C05        	xor a,5
 202  0019  0500     R  	or a,_ktd_anticlockwise_ring_2[6]
 202  001A  3D0A        	sz z
"File: hal_ktd.c     Assembler  Version HGASM0202      Page 17

 202  001B  2800     R  	jmp _L34
 202  001C  0700     R  	mov a,_ktd_anticlockwise_ring_2[5]
 202  001D  0C06        	xor a,6
 202  001E  0500     R  	or a,_ktd_anticlockwise_ring_2[6]
 202  001F  3D0A        	sz z
 202  0020  2800     R  	jmp _L35
 202  0021  0700     R  	mov a,_ktd_anticlockwise_ring_2[5]
 202  0022  0C07        	xor a,7
 202  0023  0500     R  	or a,_ktd_anticlockwise_ring_2[6]
 202  0024  3D0A        	sz z
 202  0025  2800     R  	jmp _L36
 202  0026  0700     R  	mov a,_ktd_anticlockwise_ring_2[5]
 202  0027  0C08        	xor a,8
 202  0028  0500     R  	or a,_ktd_anticlockwise_ring_2[6]
 202  0029  3D0A        	sz z
 202  002A  2800     R  	jmp _L37
 202  002B  0700     R  	mov a,_ktd_anticlockwise_ring_2[5]
 202  002C  0C09        	xor a,9
 202  002D  0500     R  	or a,_ktd_anticlockwise_ring_2[6]
 202  002E  3D0A        	sz z
 202  002F  2800     R  	jmp _L38
 202  0030  0700     R  	mov a,_ktd_anticlockwise_ring_2[5]
 202  0031  0C0A        	xor a,10
 202  0032  0500     R  	or a,_ktd_anticlockwise_ring_2[6]
 202  0033  3D0A        	sz z
 202  0034  2800     R  	jmp _L39
 202  0035  0700     R  	mov a,_ktd_anticlockwise_ring_2[5]
 202  0036  0C0B        	xor a,11
 202  0037  0500     R  	or a,_ktd_anticlockwise_ring_2[6]
 202  0038  390A        	snz z
 202  0039  2800     R  	jmp _L44
 205  003A              #line 205 "c:\users\user\documents\htk_project\3652_adc_test_vib_1\hal_ktd.c"
 205  003A  1F00     R  	clr _ktd_ring_2[7]
 205  003B  1F00     R  	clr _ktd_ring_2[6]
 205  003C  1F00     R  	clr _ktd_ring_2[5]
 205  003D  1F00     R  	clr _ktd_ring_2[4]
 205  003E  1F00     R  	clr _ktd_ring_2[3]
 205  003F  0F87        	mov a,135
 205  0040  0080     R  	mov _ktd_ring_2[2],a
 205  0041  2800     R  	jmp _L50
 205  0042              _L39:
 212  0042              #line 212 "c:\users\user\documents\htk_project\3652_adc_test_vib_1\hal_ktd.c"
 212  0042  1F00     R  	clr _ktd_ring_2[7]
 212  0043  1F00     R  	clr _ktd_ring_2[6]
 212  0044  1F00     R  	clr _ktd_ring_2[5]
 212  0045  1F00     R  	clr _ktd_ring_2[4]
 212  0046  1F00     R  	clr _ktd_ring_2[3]
 212  0047  0F78        	mov a,120
 212  0048  0080     R  	mov _ktd_ring_2[2],a
 212  0049  2800     R  	jmp _L50
 212  004A              _L38:
 219  004A              #line 219 "c:\users\user\documents\htk_project\3652_adc_test_vib_1\hal_ktd.c"
 219  004A  1F00     R  	clr _ktd_ring_2[7]
 219  004B  1F00     R  	clr _ktd_ring_2[6]
 219  004C  1F00     R  	clr _ktd_ring_2[5]
 219  004D  1F00     R  	clr _ktd_ring_2[4]
 219  004E  0F87        	mov a,135
 219  004F  0080     R  	mov _ktd_ring_2[3],a
 219  0050  2800     R  	jmp _L49
 219  0051              _L37:
"File: hal_ktd.c     Assembler  Version HGASM0202      Page 18

 226  0051              #line 226 "c:\users\user\documents\htk_project\3652_adc_test_vib_1\hal_ktd.c"
 226  0051  1F00     R  	clr _ktd_ring_2[7]
 226  0052  1F00     R  	clr _ktd_ring_2[6]
 226  0053  1F00     R  	clr _ktd_ring_2[5]
 226  0054  1F00     R  	clr _ktd_ring_2[4]
 226  0055  0F78        	mov a,120
 226  0056  0080     R  	mov _ktd_ring_2[3],a
 226  0057  2800     R  	jmp _L49
 226  0058              _L36:
 233  0058              #line 233 "c:\users\user\documents\htk_project\3652_adc_test_vib_1\hal_ktd.c"
 233  0058  1F00     R  	clr _ktd_ring_2[7]
 233  0059  1F00     R  	clr _ktd_ring_2[6]
 233  005A  1F00     R  	clr _ktd_ring_2[5]
 233  005B  0F87        	mov a,135
 233  005C  0080     R  	mov _ktd_ring_2[4],a
 233  005D  2800     R  	jmp _L48
 233  005E              _L35:
 240  005E              #line 240 "c:\users\user\documents\htk_project\3652_adc_test_vib_1\hal_ktd.c"
 240  005E  1F00     R  	clr _ktd_ring_2[7]
 240  005F  1F00     R  	clr _ktd_ring_2[6]
 240  0060  1F00     R  	clr _ktd_ring_2[5]
 240  0061  0F78        	mov a,120
 240  0062  0080     R  	mov _ktd_ring_2[4],a
 240  0063  2800     R  	jmp _L48
 240  0064              _L34:
 247  0064              #line 247 "c:\users\user\documents\htk_project\3652_adc_test_vib_1\hal_ktd.c"
 247  0064  1F00     R  	clr _ktd_ring_2[7]
 247  0065  1F00     R  	clr _ktd_ring_2[6]
 247  0066  0F87        	mov a,135
 247  0067  0080     R  	mov _ktd_ring_2[5],a
 247  0068  2800     R  	jmp _L47
 247  0069              _L33:
 254  0069              #line 254 "c:\users\user\documents\htk_project\3652_adc_test_vib_1\hal_ktd.c"
 254  0069  1F00     R  	clr _ktd_ring_2[7]
 254  006A  1F00     R  	clr _ktd_ring_2[6]
 254  006B  0F78        	mov a,120
 254  006C  0080     R  	mov _ktd_ring_2[5],a
 254  006D  2800     R  	jmp _L47
 254  006E              _L32:
 261  006E              #line 261 "c:\users\user\documents\htk_project\3652_adc_test_vib_1\hal_ktd.c"
 261  006E  1F00     R  	clr _ktd_ring_2[7]
 261  006F  0F87        	mov a,135
 261  0070  0080     R  	mov _ktd_ring_2[6],a
 261  0071  2800     R  	jmp _L45
 261  0072              _L31:
 268  0072              #line 268 "c:\users\user\documents\htk_project\3652_adc_test_vib_1\hal_ktd.c"
 268  0072  1F00     R  	clr _ktd_ring_2[7]
 268  0073  0F78        	mov a,120
 268  0074  0080     R  	mov _ktd_ring_2[6],a
 268  0075  2800     R  	jmp _L45
 268  0076              _L30:
 275  0076              #line 275 "c:\users\user\documents\htk_project\3652_adc_test_vib_1\hal_ktd.c"
 275  0076  0F87        	mov a,135
 275  0077  0080     R  	mov _ktd_ring_2[7],a
 275  0078  2800     R  	jmp _L46
 275  0079              _L44:
 282  0079              #line 282 "c:\users\user\documents\htk_project\3652_adc_test_vib_1\hal_ktd.c"
 282  0079  0F78        	mov a,120
 282  007A  0080     R  	mov _ktd_ring_2[7],a
 282  007B              _L46:
"File: hal_ktd.c     Assembler  Version HGASM0202      Page 19

 282  007B  1F00     R  	clr _ktd_ring_2[6]
 282  007C              _L45:
 282  007C  1F00     R  	clr _ktd_ring_2[5]
 282  007D              _L47:
 282  007D  1F00     R  	clr _ktd_ring_2[4]
 282  007E              _L48:
 282  007E  1F00     R  	clr _ktd_ring_2[3]
 282  007F              _L49:
 282  007F  1F00     R  	clr _ktd_ring_2[2]
 282  0080              _L50:
 282  0080  0700     R  	mov a,_ktd_anticlockwise_ring_2[1]
 282  0081  0080     R  	mov _ktd_ring_2[1],a
 282  0082  0700     R  	mov a,_ktd_anticlockwise_ring_2[0]
 282  0083  0080     R  	mov _ktd_ring_2[0],a
 282  0084  0700     R  	mov a,_ktd_anticlockwise_ring_2[4]
 282  0085  2000     R  	call _ktd_ring
 288  0086              #line 288 "c:\users\user\documents\htk_project\3652_adc_test_vib_1\hal_ktd.c"
 288  0086  0700     R  	mov a,_ktd_anticlockwise_ring_2[2]
 288  0087  0080     E  	mov _delay_2[0],a
 288  0088  0700     R  	mov a,_ktd_anticlockwise_ring_2[3]
 288  0089  0080     E  	mov _delay_2[1],a
 288  008A  2000     E  	call _delay
 200  008B              #line 200 "c:\users\user\documents\htk_project\3652_adc_test_vib_1\hal_ktd.c"
 200  008B  1480     R  	inc _ktd_anticlockwise_ring_2[5]
 200  008C  3D0A        	sz z
 200  008D  1480     R  	inc _ktd_anticlockwise_ring_2[6]
 200  008E  0700     R  	mov a,_ktd_anticlockwise_ring_2[5]
 200  008F  0C0C        	xor a,12
 200  0090  0500     R  	or a,_ktd_anticlockwise_ring_2[6]
 200  0091  390A        	snz z
 200  0092  2800     R  	jmp _L43
 200  0093  0003        	ret
 200  0094              _ktd_anticlockwise_ring endp
 200  0094              #line 200 "c:\users\user\documents\htk_project\3652_adc_test_vib_1\hal_ktd.c"
 200  0094              #pragma debug scope 1 1
 200  0094              extern _WriteI2C_Int_2:byte
 200  0094              extern _WriteI2C_Int:near
 200  0094              extern _delay_2:byte
 200  0094              extern _delay:near
 200  0094              
 200  0094              ; 
 200  0094              ; Generated by holtek-gcc v3.19, Fri May 27 15:24:03 2022
 200  0094              ; Rebuild 718
 200  0094              ; end of file


        0 Errors, 0