"File: Font.h        Assembler  Version HGASM0202      Page 1


   1  0000              ; Generated by holtek-gcc v3.19, Sat May 21 17:21:06 2022
   2  0000              ; 
   3  0000              ; Configuration:
   4  0000              ;       with long instruction
   5  0000              ;       Single ROM, Multi-RAM
   6  0000              ;       bits_per_rom_unit:16
   7  0000              ;       with mp1
   8  0000              ;       with tbhp, address(0x9)
   9  0000              ;          Use tabrd-const
  10  0000              ;       
  11  0000              ; SFR address of long-instruction arch:
  12  0000              ;    mp0 = -1,1,0
  13  0000              ;    mp1 = 4,3,2
  14  0000              ;    mp2 = 14,13,12
  15  0000              ;    tbp = 9,7,8
  16  0000              ;    acc = 5
  17  0000              ;    pcl = 6
  18  0000              ;    status = 10
  19  0000              ;    bp = 11
  20  0000              ;    intc = 17
  21  0000              ;       
  22  0000              ;       
  23  0000              ; use 'tabrdc' instead of 'tabrd'
  24  0000              ;       
  25  0000              
  26  0000              #pragma translator "holtek-gcc 4.6.4" "3.19" "build 20130711"
  27  0000              ; Rebuild 718
  28  0000              
  29  0000              ir equ [2]
  30  0000              mp equ [3]
  31  0000              sbp equ [4]
  32  0000              acc equ [5]
  33  0000              bp equ [11]
  34  0000              tblp equ [7]
  35  0000              tbhp equ [9]
  36  0000              status equ [10]
  37  0000              c equ [10].0
  38  0000              ac equ [10].1
  39  0000              z equ [10].2
  40  0000              ov equ [10].3
  41  0000              cz equ [10].6
  42  0000              sc equ [10].7
  43  0000              intc equ [17]
  44  0000              
  45  0000              extern ra:byte
  46  0000              extern rb:byte
  47  0000              extern rc:byte
  48  0000              extern rd:byte
  49  0000              extern re:byte
  50  0000              extern rf:byte
  51  0000              extern rg:byte
  52  0000              extern rh:byte
  53  0000              extern _Crom2Prom:near
  54  0000              extern _Crom2PromNext:near
  55  0000              
  56  0000              RAMBANK 0 @BITDATASEC, @BITDATASEC1
  57  0000              @HCCINIT	.section 'data'
  58  0000              @HCCINIT0	.section 'data'
  59  0000              @BITDATASEC	 .section 'data'
"File: LCM.ASM       Assembler  Version HGASM0202      Page 2

  60  0000              @BITDATASEC1	 .section 'data'
  61  0000              
  62  0000              #pragma debug scope 1 1
  63  0000              	extern __DELAY3:near
  64  0000              	extern __DELAYX3:near
  65  0000              	extern __DELAYX6:near
  66  0000              	extern __DELAYY5:near
  67  0000              	extern __DELAYY3:near
  68  0000              	extern _builtin_holtek_delay_2:byte
  69  0000              ___pcs0 equ [95]
  70  0000              ___pbs1 equ [94]
  71  0000              ___pc equ [65]
  72  0000              ___pcc equ [66]
  73  0000              ___pb equ [37]
  74  0000              ___pbc equ [38]
  75  0000              ___simc0 equ [69]
  76  0000              ___simc2 equ [72]
  77  0000              public _LCM_Prot_init
  78  0000              #pragma debug scope 2 1

  30  0000              #line 30 "c:\users\user\documents\htk_project\3652_adc_test_2\LCM.c"
  30  0000              _LCM_Prot_init .section 'code'
  30  0000              _LCM_Prot_init proc
  31  0000              #line 31 "c:\users\user\documents\htk_project\3652_adc_test_2\LCM.c"
  31  0000  32DF        	set [95].5
  32  0001              #line 32 "c:\users\user\documents\htk_project\3652_adc_test_2\LCM.c"
  32  0001  325E        	set [94].4
  36  0002              #line 36 "c:\users\user\documents\htk_project\3652_adc_test_2\LCM.c"
  36  0002  3141        	set [65].2
  37  0003              #line 37 "c:\users\user\documents\htk_project\3652_adc_test_2\LCM.c"
  37  0003  3542        	clr [66].2
  39  0004              #line 39 "c:\users\user\documents\htk_project\3652_adc_test_2\LCM.c"
  39  0004  3325        	set [37].6
  40  0005              #line 40 "c:\users\user\documents\htk_project\3652_adc_test_2\LCM.c"
  40  0005  3726        	clr [38].6
  42  0006              #line 42 "c:\users\user\documents\htk_project\3652_adc_test_2\LCM.c"
  42  0006  32A5        	set [37].5
  43  0007              #line 43 "c:\users\user\documents\htk_project\3652_adc_test_2\LCM.c"
  43  0007  36A6        	clr [38].5
  45  0008              #line 45 "c:\users\user\documents\htk_project\3652_adc_test_2\LCM.c"
  45  0008  3225        	set [37].4
  46  0009              #line 46 "c:\users\user\documents\htk_project\3652_adc_test_2\LCM.c"
  46  0009  3626        	clr [38].4
  48  000A              #line 48 "c:\users\user\documents\htk_project\3652_adc_test_2\LCM.c"
  48  000A  31A5        	set [37].3
  49  000B              #line 49 "c:\users\user\documents\htk_project\3652_adc_test_2\LCM.c"
  49  000B  35A6        	clr [38].3
  51  000C              #line 51 "c:\users\user\documents\htk_project\3652_adc_test_2\LCM.c"
  51  000C  34C5        	clr [69].1
  52  000D              #line 52 "c:\users\user\documents\htk_project\3652_adc_test_2\LCM.c"
  52  000D  1F45        	clr [69]
  53  000E              #line 53 "c:\users\user\documents\htk_project\3652_adc_test_2\LCM.c"
  53  000E  0F08        	mov a,8
  53  000F  00C8        	mov [72],a
  54  0010              #line 54 "c:\users\user\documents\htk_project\3652_adc_test_2\LCM.c"
  54  0010  30C5        	set [69].1
  54  0011  0003        	ret
  54  0012              _LCM_Prot_init endp
  54  0012              #line 54 "c:\users\user\documents\htk_project\3652_adc_test_2\LCM.c"
  54  0012              #pragma debug scope 1 1
"File: LCM.c         Assembler  Version HGASM0202      Page 3

  54  0012              ___simd equ [71]
  54  0012              public _LCM_Write_CMD
  54  0012              #pragma debug scope 3 1
  64  0012              #line 64 "c:\users\user\documents\htk_project\3652_adc_test_2\LCM.c"
  64  0000              _LCM_Write_CMD .section 'code'
  64  0000              _LCM_Write_CMD proc
  64  0000  00              local _LCM_Write_CMD_2 db 1 dup(?)	; 0,1
  64  0000  0080     R  	mov _LCM_Write_CMD_2[0],a
  64  0001              #pragma debug variable 8 3 _LCM_Write_CMD_2+0 "CMD"
  65  0001              #line 65 "c:\users\user\documents\htk_project\3652_adc_test_2\LCM.c"
  65  0001  35A5        	clr [37].3
  66  0002              #line 66 "c:\users\user\documents\htk_project\3652_adc_test_2\LCM.c"
  66  0002  36A5        	clr [37].5
  66  0003              _L4:
  69  0003              #line 69 "c:\users\user\documents\htk_project\3652_adc_test_2\LCM.c"
  69  0003  34C8        	clr [72].1
  70  0004              #line 70 "c:\users\user\documents\htk_project\3652_adc_test_2\LCM.c"
  70  0004  0700     R  	mov a,_LCM_Write_CMD_2[0]
  70  0005  00C7        	mov [71],a
  72  0006              #line 72 "c:\users\user\documents\htk_project\3652_adc_test_2\LCM.c"
  72  0006  3CC8        	sz [72].1
  72  0007  2800     R  	jmp _L4
  72  0008              _L6:
  74  0008              #line 74 "c:\users\user\documents\htk_project\3652_adc_test_2\LCM.c"
  74  0008  3848        	snz [72].0
  74  0009  2800     R  	jmp _L6
  75  000A              #line 75 "c:\users\user\documents\htk_project\3652_adc_test_2\LCM.c"
  75  000A  3448        	clr [72].0
  77  000B              #line 77 "c:\users\user\documents\htk_project\3652_adc_test_2\LCM.c"
  77  000B  32A5        	set [37].5
  78  000C              #line 78 "c:\users\user\documents\htk_project\3652_adc_test_2\LCM.c"
  78  000C  31A5        	set [37].3
  78  000D  0003        	ret
  78  000E              _LCM_Write_CMD endp
  78  000E              #line 78 "c:\users\user\documents\htk_project\3652_adc_test_2\LCM.c"
  78  000E              #pragma debug scope 1 1
  78  000E              public _LCM_Write_DATA
  78  000E              #pragma debug scope 4 1
  87  000E              #line 87 "c:\users\user\documents\htk_project\3652_adc_test_2\LCM.c"
  87  0000              _LCM_Write_DATA .section 'code'
  87  0000              _LCM_Write_DATA proc
  87  0000  00              local _LCM_Write_DATA_2 db 1 dup(?)	; 0,1
  87  0000  0080     R  	mov _LCM_Write_DATA_2[0],a
  87  0001              #pragma debug variable 8 4 _LCM_Write_DATA_2+0 "data"
  88  0001              #line 88 "c:\users\user\documents\htk_project\3652_adc_test_2\LCM.c"
  88  0001  31A5        	set [37].3
  89  0002              #line 89 "c:\users\user\documents\htk_project\3652_adc_test_2\LCM.c"
  89  0002  36A5        	clr [37].5
  89  0003              _L11:
  92  0003              #line 92 "c:\users\user\documents\htk_project\3652_adc_test_2\LCM.c"
  92  0003  34C8        	clr [72].1
  93  0004              #line 93 "c:\users\user\documents\htk_project\3652_adc_test_2\LCM.c"
  93  0004  0700     R  	mov a,_LCM_Write_DATA_2[0]
  93  0005  00C7        	mov [71],a
  95  0006              #line 95 "c:\users\user\documents\htk_project\3652_adc_test_2\LCM.c"
  95  0006  3CC8        	sz [72].1
  95  0007  2800     R  	jmp _L11
  95  0008              _L13:
  97  0008              #line 97 "c:\users\user\documents\htk_project\3652_adc_test_2\LCM.c"
  97  0008  3848        	snz [72].0
"File: LCM.c         Assembler  Version HGASM0202      Page 4

  97  0009  2800     R  	jmp _L13
  98  000A              #line 98 "c:\users\user\documents\htk_project\3652_adc_test_2\LCM.c"
  98  000A  3448        	clr [72].0
 100  000B              #line 100 "c:\users\user\documents\htk_project\3652_adc_test_2\LCM.c"
 100  000B  32A5        	set [37].5
 101  000C              #line 101 "c:\users\user\documents\htk_project\3652_adc_test_2\LCM.c"
 101  000C  31A5        	set [37].3
 101  000D  0003        	ret
 101  000E              _LCM_Write_DATA endp
 101  000E              #line 101 "c:\users\user\documents\htk_project\3652_adc_test_2\LCM.c"
 101  000E              #pragma debug scope 1 1
 101  000E              public _LCM_delay20us
 101  000E              #pragma debug scope 5 1
 110  000E              #line 110 "c:\users\user\documents\htk_project\3652_adc_test_2\LCM.c"
 110  0000              _LCM_delay20us .section 'code'
 110  0000              _LCM_delay20us proc
 110  0000              public _LCM_delay20us_2
 110  0000  0002[           local _LCM_delay20us_2 db 2 dup(?)	; 2,0
            00
            ]
 110  0002              #pragma debug variable 12 5 _LCM_delay20us_2+0 "us"
 113  0002              #line 113 "c:\users\user\documents\htk_project\3652_adc_test_2\LCM.c"
 113  0000  1F00     E  	clr ra
 113  0001  2800     R  	jmp _L16
 113  0002              _L17:
 115  0002              #line 115 "c:\users\user\documents\htk_project\3652_adc_test_2\LCM.c"
 115  0002              ;# 115 "c:\users\user\documents\htk_project\3652_adc_test_2\LCM.c" 1
 115  0002  0000        	nop
 116  0003              #line 116 "c:\users\user\documents\htk_project\3652_adc_test_2\LCM.c"
 116  0003              ;# 116 "c:\users\user\documents\htk_project\3652_adc_test_2\LCM.c" 1
 116  0003  0000        	nop
 117  0004              #line 117 "c:\users\user\documents\htk_project\3652_adc_test_2\LCM.c"
 117  0004              ;# 117 "c:\users\user\documents\htk_project\3652_adc_test_2\LCM.c" 1
 117  0004  0000        	nop
 118  0005              #line 118 "c:\users\user\documents\htk_project\3652_adc_test_2\LCM.c"
 118  0005              ;# 118 "c:\users\user\documents\htk_project\3652_adc_test_2\LCM.c" 1
 118  0005  0000        	nop
 119  0006              #line 119 "c:\users\user\documents\htk_project\3652_adc_test_2\LCM.c"
 119  0006              ;# 119 "c:\users\user\documents\htk_project\3652_adc_test_2\LCM.c" 1
 119  0006  0000        	nop
 120  0007              #line 120 "c:\users\user\documents\htk_project\3652_adc_test_2\LCM.c"
 120  0007              ;# 120 "c:\users\user\documents\htk_project\3652_adc_test_2\LCM.c" 1
 120  0007  0000        	nop
 121  0008              #line 121 "c:\users\user\documents\htk_project\3652_adc_test_2\LCM.c"
 121  0008              ;# 121 "c:\users\user\documents\htk_project\3652_adc_test_2\LCM.c" 1
 121  0008  0000        	nop
 122  0009              #line 122 "c:\users\user\documents\htk_project\3652_adc_test_2\LCM.c"
 122  0009              ;# 122 "c:\users\user\documents\htk_project\3652_adc_test_2\LCM.c" 1
 122  0009  0000        	nop
 123  000A              #line 123 "c:\users\user\documents\htk_project\3652_adc_test_2\LCM.c"
 123  000A              ;# 123 "c:\users\user\documents\htk_project\3652_adc_test_2\LCM.c" 1
 123  000A  0000        	nop
 124  000B              #line 124 "c:\users\user\documents\htk_project\3652_adc_test_2\LCM.c"
 124  000B              ;# 124 "c:\users\user\documents\htk_project\3652_adc_test_2\LCM.c" 1
 124  000B  0000        	nop
 113  000C              #line 113 "c:\users\user\documents\htk_project\3652_adc_test_2\LCM.c"
 113  000C  1480     E  	inc ra
 113  000D              _L16:
 113  000D  0700     E  	mov a,ra
 113  000E  0080     E  	mov rb,a
"File: LCM.c         Assembler  Version HGASM0202      Page 5

 113  000F  1F00     E  	clr rc
 113  0010  0700     E  	mov a,rb
 113  0011  0200     R  	sub a,_LCM_delay20us_2[0]
 113  0012  0700     E  	mov a,rc
 113  0013  1200     R  	sbc a,_LCM_delay20us_2[1]
 113  0014  380A        	snz c
 113  0015  2800     R  	jmp _L17
 113  0016  0003        	ret
 113  0017              _LCM_delay20us endp
 113  0017              #line 113 "c:\users\user\documents\htk_project\3652_adc_test_2\LCM.c"
 113  0017              #pragma debug scope 1 1
 113  0017              public _LCM_init
 113  0017              #pragma debug scope 6 1
 134  0017              #line 134 "c:\users\user\documents\htk_project\3652_adc_test_2\LCM.c"
 134  0000              _LCM_init .section 'code'
 134  0000              _LCM_init proc
 135  0000              #line 135 "c:\users\user\documents\htk_project\3652_adc_test_2\LCM.c"
 135  0000  3625        	clr [37].4
 136  0001              #line 136 "c:\users\user\documents\htk_project\3652_adc_test_2\LCM.c"
 136  0001  0F05        	mov a,5
 136  0002  0080     R  	mov _LCM_delay20us_2[0],a
 136  0003  1F00     R  	clr _LCM_delay20us_2[1]
 136  0004  2000     R  	call _LCM_delay20us
 137  0005              #line 137 "c:\users\user\documents\htk_project\3652_adc_test_2\LCM.c"
 137  0005  3225        	set [37].4
 138  0006              #line 138 "c:\users\user\documents\htk_project\3652_adc_test_2\LCM.c"
 138  0006  0F32        	mov a,50
 138  0007  0080     R  	mov _LCM_delay20us_2[0],a
 138  0008  1F00     R  	clr _LCM_delay20us_2[1]
 138  0009  2000     R  	call _LCM_delay20us
 140  000A              #line 140 "c:\users\user\documents\htk_project\3652_adc_test_2\LCM.c"
 140  000A  0FA0        	mov a,160
 140  000B  2000     R  	call _LCM_Write_CMD
 141  000C              #line 141 "c:\users\user\documents\htk_project\3652_adc_test_2\LCM.c"
 141  000C  0FC8        	mov a,200
 141  000D  2000     R  	call _LCM_Write_CMD
 142  000E              #line 142 "c:\users\user\documents\htk_project\3652_adc_test_2\LCM.c"
 142  000E  0FA2        	mov a,162
 142  000F  2000     R  	call _LCM_Write_CMD
 143  0010              #line 143 "c:\users\user\documents\htk_project\3652_adc_test_2\LCM.c"
 143  0010  0F2C        	mov a,44
 143  0011  2000     R  	call _LCM_Write_CMD
 144  0012              #line 144 "c:\users\user\documents\htk_project\3652_adc_test_2\LCM.c"
 144  0012  0F05        	mov a,5
 144  0013  0080     R  	mov _LCM_delay20us_2[0],a
 144  0014  1F00     R  	clr _LCM_delay20us_2[1]
 144  0015  2000     R  	call _LCM_delay20us
 145  0016              #line 145 "c:\users\user\documents\htk_project\3652_adc_test_2\LCM.c"
 145  0016  0F2E        	mov a,46
 145  0017  2000     R  	call _LCM_Write_CMD
 146  0018              #line 146 "c:\users\user\documents\htk_project\3652_adc_test_2\LCM.c"
 146  0018  0F05        	mov a,5
 146  0019  0080     R  	mov _LCM_delay20us_2[0],a
 146  001A  1F00     R  	clr _LCM_delay20us_2[1]
 146  001B  2000     R  	call _LCM_delay20us
 148  001C              #line 148 "c:\users\user\documents\htk_project\3652_adc_test_2\LCM.c"
 148  001C  0F2F        	mov a,47
 148  001D  2000     R  	call _LCM_Write_CMD
 149  001E              #line 149 "c:\users\user\documents\htk_project\3652_adc_test_2\LCM.c"
 149  001E  0F24        	mov a,36
"File: LCM.c         Assembler  Version HGASM0202      Page 6

 149  001F  2000     R  	call _LCM_Write_CMD
 151  0020              #line 151 "c:\users\user\documents\htk_project\3652_adc_test_2\LCM.c"
 151  0020  0F81        	mov a,129
 151  0021  2000     R  	call _LCM_Write_CMD
 152  0022              #line 152 "c:\users\user\documents\htk_project\3652_adc_test_2\LCM.c"
 152  0022  0F1A        	mov a,26
 152  0023  2000     R  	call _LCM_Write_CMD
 153  0024              #line 153 "c:\users\user\documents\htk_project\3652_adc_test_2\LCM.c"
 153  0024  0F05        	mov a,5
 153  0025  0080     R  	mov _LCM_delay20us_2[0],a
 153  0026  1F00     R  	clr _LCM_delay20us_2[1]
 153  0027  2000     R  	call _LCM_delay20us
 155  0028              #line 155 "c:\users\user\documents\htk_project\3652_adc_test_2\LCM.c"
 155  0028  0FAF        	mov a,175
 155  0029  2000     R  	call _LCM_Write_CMD
 157  002A              #line 157 "c:\users\user\documents\htk_project\3652_adc_test_2\LCM.c"
 157  002A  0F40        	mov a,64
 157  002B  2000     R  	call _LCM_Write_CMD
 157  002C  0003        	ret
 157  002D              _LCM_init endp
 157  002D              #line 157 "c:\users\user\documents\htk_project\3652_adc_test_2\LCM.c"
 157  002D              #pragma debug scope 1 1
 157  002D              public _LCM_SetAddress
 157  002D              #pragma debug scope 7 1
 166  002D              #line 166 "c:\users\user\documents\htk_project\3652_adc_test_2\LCM.c"
 166  0000              _LCM_SetAddress .section 'code'
 166  0000              _LCM_SetAddress proc
 166  0000              public _LCM_SetAddress_2
 166  0000  0002[           local _LCM_SetAddress_2 db 2 dup(?)	; 1,1
            00
            ]
 166  0000  0080     E  	mov ra,a
 166  0001              #pragma debug variable 8 7 _LCM_SetAddress_2+1 "page"
 166  0001              #pragma debug variable 8 7 _LCM_SetAddress_2+0 "column"
 167  0001              #line 167 "c:\users\user\documents\htk_project\3652_adc_test_2\LCM.c"
 167  0001  0FB0        	mov a,176
 167  0002  0380     E  	addm a,ra
 167  0003  0700     E  	mov a,ra
 167  0004  2000     R  	call _LCM_Write_CMD
 168  0005              #line 168 "c:\users\user\documents\htk_project\3652_adc_test_2\LCM.c"
 168  0005  1100     R  	swapa _LCM_SetAddress_2[0]
 168  0006  0E0F        	and a,0fh
 168  0007  0080     E  	mov ra,a
 168  0008  0F10        	mov a,16
 168  0009  0380     E  	addm a,ra
 168  000A  0700     E  	mov a,ra
 168  000B  2000     R  	call _LCM_Write_CMD
 169  000C              #line 169 "c:\users\user\documents\htk_project\3652_adc_test_2\LCM.c"
 169  000C  0700     R  	mov a,_LCM_SetAddress_2[0]
 169  000D  0E0F        	and a,15
 169  000E  0080     E  	mov ra,a
 169  000F  0700     E  	mov a,ra
 169  0010  2000     R  	call _LCM_Write_CMD
 169  0011  0003        	ret
 169  0012              _LCM_SetAddress endp
 169  0012              #line 169 "c:\users\user\documents\htk_project\3652_adc_test_2\LCM.c"
 169  0012              #pragma debug scope 1 1
 169  0012              public _LCM_BCLogo
 169  0012              #pragma debug scope 8 1
 178  0012              #line 178 "c:\users\user\documents\htk_project\3652_adc_test_2\LCM.c"
"File: LCM.c         Assembler  Version HGASM0202      Page 7

 178  0000              _LCM_BCLogo .section 'code'
 178  0000              _LCM_BCLogo proc
 178  0000  0006[           local _LCM_BCLogo_2 db 6 dup(?)	; 0,6
            00
            ]
 178  0006              #pragma debug variable 8 8 _LCM_BCLogo_2+2 "a"
 178  0000  0F08        	mov a,8
 178  0001  0080     R  	mov _LCM_BCLogo_2[3],a
 181  0002              #line 181 "c:\users\user\documents\htk_project\3652_adc_test_2\LCM.c"
 181  0002  1F00     R  	clr _LCM_BCLogo_2[2]
 181  0003              _L24:
 183  0003              #line 183 "c:\users\user\documents\htk_project\3652_adc_test_2\LCM.c"
 183  0003  1F00     R  	clr _LCM_SetAddress_2[0]
 183  0004  0700     R  	mov a,_LCM_BCLogo_2[2]
 183  0005  2000     R  	call _LCM_SetAddress
 186  0006              #line 186 "c:\users\user\documents\htk_project\3652_adc_test_2\LCM.c"
 186  0006  0700     R  	mov a,_LCM_BCLogo_2[2]
 186  0007  0080     E  	mov rb,a
 186  0008  1F00     E  	clr rc
 186  0009  1B00     E  	rrca rc
 186  000A  1B00     E  	rrca rb
 186  000B  0080     R  	mov _LCM_BCLogo_2[5],a
 186  000C  1B00     E  	rrca rb
 186  000D  1F00     R  	clr _LCM_BCLogo_2[4]
 186  000E  1B80     R  	rrc _LCM_BCLogo_2[4]
 186  000F  1F00     R  	clr _LCM_BCLogo_2[0]
 186  0010  1F00     R  	clr _LCM_BCLogo_2[1]
 186  0011              _L21:
 186  0011  0F00     R  	mov a,low offset _BestComm_Logo
 186  0012  0300     R  	add a,_LCM_BCLogo_2[4]
 186  0013  0080     E  	mov rb,a
 186  0014  0F00     R  	mov a,high offset _BestComm_Logo
 186  0015  1300     R  	adc a,_LCM_BCLogo_2[5]
 186  0016  0080     E  	mov rc,a
 186  0017  0700     E  	mov a,rb
 186  0018  0200     R  	sub a,_LCM_BCLogo_2[0]
 186  0019  0080     E  	mov rd,a
 186  001A  0700     E  	mov a,rc
 186  001B  1200     R  	sbc a,_LCM_BCLogo_2[1]
 186  001C  0080     E  	mov re,a
 186  001D  0700     E  	mov a,rd
 186  001E  0083        	mov mp,a
 186  001F  0700     E  	mov a,re
 186  0020  0084        	mov sbp,a
 186  0021  2000     E  	call _Crom2Prom
 186  0022  2000     R  	call _LCM_Write_DATA
 186  0023  0FFF        	mov a,255
 186  0024  0380     R  	addm a,_LCM_BCLogo_2[0]
 186  0025  0FFF        	mov a,255
 186  0026  1380     R  	adcm a,_LCM_BCLogo_2[1]
 184  0027              #line 184 "c:\users\user\documents\htk_project\3652_adc_test_2\LCM.c"
 184  0027  0700     R  	mov a,_LCM_BCLogo_2[0]
 184  0028  0A80        	sub a,128
 184  0029  0700     R  	mov a,_LCM_BCLogo_2[1]
 184  002A  08FF        	sbc a,255
 184  002B  3B0A        	snz cz
 184  002C  2800     R  	jmp _L21
 181  002D              #line 181 "c:\users\user\documents\htk_project\3652_adc_test_2\LCM.c"
 181  002D  1480     R  	inc _LCM_BCLogo_2[2]
 181  002E  1780     R  	sdz _LCM_BCLogo_2[3]
"File: LCM.c         Assembler  Version HGASM0202      Page 8

 181  002F  2800     R  	jmp _L24
 181  0030  0003        	ret
 181  0031              _LCM_BCLogo endp
 181  0031              #line 181 "c:\users\user\documents\htk_project\3652_adc_test_2\LCM.c"
 181  0031              #pragma debug scope 1 1
 181  0031              public _LCM_ClearScreen
 181  0031              #pragma debug scope 9 1
 197  0031              #line 197 "c:\users\user\documents\htk_project\3652_adc_test_2\LCM.c"
 197  0000              _LCM_ClearScreen .section 'code'
 197  0000              _LCM_ClearScreen proc
 197  0000  0002[           local _LCM_ClearScreen_2 db 2 dup(?)	; 0,2
            00
            ]
 197  0002              #pragma debug variable 8 9 _LCM_ClearScreen_2+0 "a"
 197  0002              #pragma debug variable 8 9 _LCM_ClearScreen_2+1 "b"
 200  0002              #line 200 "c:\users\user\documents\htk_project\3652_adc_test_2\LCM.c"
 200  0000  1F00     R  	clr _LCM_ClearScreen_2[0]
 200  0001              _L29:
 202  0001              #line 202 "c:\users\user\documents\htk_project\3652_adc_test_2\LCM.c"
 202  0001  1F00     R  	clr _LCM_SetAddress_2[0]
 202  0002  0700     R  	mov a,_LCM_ClearScreen_2[0]
 202  0003  2000     R  	call _LCM_SetAddress
 203  0004              #line 203 "c:\users\user\documents\htk_project\3652_adc_test_2\LCM.c"
 203  0004  1F00     R  	clr _LCM_ClearScreen_2[1]
 203  0005              _L26:
 205  0005              #line 205 "c:\users\user\documents\htk_project\3652_adc_test_2\LCM.c"
 205  0005  0F00        	mov a,0
 205  0006  2000     R  	call _LCM_Write_DATA
 203  0007              #line 203 "c:\users\user\documents\htk_project\3652_adc_test_2\LCM.c"
 203  0007  1480     R  	inc _LCM_ClearScreen_2[1]
 203  0008  0700     R  	mov a,_LCM_ClearScreen_2[1]
 203  0009  0A80        	sub a,128
 203  000A  390A        	snz z
 203  000B  2800     R  	jmp _L26
 200  000C              #line 200 "c:\users\user\documents\htk_project\3652_adc_test_2\LCM.c"
 200  000C  1480     R  	inc _LCM_ClearScreen_2[0]
 200  000D  0700     R  	mov a,_LCM_ClearScreen_2[0]
 200  000E  0A08        	sub a,8
 200  000F  390A        	snz z
 200  0010  2800     R  	jmp _L29
 200  0011  0003        	ret
 200  0012              _LCM_ClearScreen endp
 200  0012              #line 200 "c:\users\user\documents\htk_project\3652_adc_test_2\LCM.c"
 200  0012              #pragma debug scope 1 1
 200  0012              public _LCM_ClearPage
 200  0012              #pragma debug scope 10 1
 216  0012              #line 216 "c:\users\user\documents\htk_project\3652_adc_test_2\LCM.c"
 216  0000              _LCM_ClearPage .section 'code'
 216  0000              _LCM_ClearPage proc
 216  0000  0002[           local _LCM_ClearPage_2 db 2 dup(?)	; 0,2
            00
            ]
 216  0000  0080     E  	mov ra,a
 216  0001              #pragma debug variable 8 10 _LCM_ClearPage_2+0 "page"
 216  0001              #pragma debug variable 8 10 _LCM_ClearPage_2+1 "a"
 219  0001              #line 219 "c:\users\user\documents\htk_project\3652_adc_test_2\LCM.c"
 219  0001  1F00     R  	clr _LCM_SetAddress_2[0]
 219  0002  0700     E  	mov a,ra
 219  0003  2000     R  	call _LCM_SetAddress
 220  0004              #line 220 "c:\users\user\documents\htk_project\3652_adc_test_2\LCM.c"
"File: LCM.c         Assembler  Version HGASM0202      Page 9

 220  0004  1F00     R  	clr _LCM_ClearPage_2[1]
 220  0005              _L31:
 222  0005              #line 222 "c:\users\user\documents\htk_project\3652_adc_test_2\LCM.c"
 222  0005  0F00        	mov a,0
 222  0006  2000     R  	call _LCM_Write_DATA
 220  0007              #line 220 "c:\users\user\documents\htk_project\3652_adc_test_2\LCM.c"
 220  0007  1480     R  	inc _LCM_ClearPage_2[1]
 220  0008  0700     R  	mov a,_LCM_ClearPage_2[1]
 220  0009  0A80        	sub a,128
 220  000A  390A        	snz z
 220  000B  2800     R  	jmp _L31
 220  000C  0003        	ret
 220  000D              _LCM_ClearPage endp
 220  000D              #line 220 "c:\users\user\documents\htk_project\3652_adc_test_2\LCM.c"
 220  000D              #pragma debug scope 1 1
 220  000D              public _LCM_Display6x8
 220  000D              #pragma debug scope 11 1
 232  000D              #line 232 "c:\users\user\documents\htk_project\3652_adc_test_2\LCM.c"
 232  0000              _LCM_Display6x8 .section 'code'
 232  0000              _LCM_Display6x8 proc
 232  0000              public _LCM_Display6x8_2
 232  0000  000A[           local _LCM_Display6x8_2 db 10 dup(?)	; 4,6
            00
            ]
 232  0000  0080     R  	mov _LCM_Display6x8_2[4],a
 232  0001              #pragma debug variable 8 11 _LCM_Display6x8_2+4 "page"
 232  0001              #pragma debug variable 8 11 _LCM_Display6x8_2+0 "column"
 232  0001              #pragma debug pointer 42 8 11
 232  0001              #pragma debug pointer 42 8 11
 232  0001              #pragma debug variable 42 11 _LCM_Display6x8_2+1 "string"
 232  0001              #pragma debug variable 8 11 _LCM_Display6x8_2+3 "status"
 232  0001              #pragma debug variable 8 11 _LCM_Display6x8_2+5 "c"
 235  0001              #line 235 "c:\users\user\documents\htk_project\3652_adc_test_2\LCM.c"
 235  0001  0700     R  	mov a,_LCM_Display6x8_2[0]
 235  0002  0300     R  	add a,_LCM_Display6x8_2[0]
 235  0003  0080     E  	mov ra,a
 235  0004  0700     R  	mov a,_LCM_Display6x8_2[0]
 235  0005  0380     E  	addm a,ra
 235  0006  0700     E  	mov a,ra
 235  0007  0300     E  	add a,ra
 235  0008  0080     R  	mov _LCM_Display6x8_2[7],a
 237  0009              #line 237 "c:\users\user\documents\htk_project\3652_adc_test_2\LCM.c"
 237  0009  1F00     R  	clr _LCM_Display6x8_2[8]
 237  000A  2800     R  	jmp _L34
 237  000B              _L43:
 239  000B              #line 239 "c:\users\user\documents\htk_project\3652_adc_test_2\LCM.c"
 239  000B  0700     E  	mov a,ra
 239  000C  0BE0        	add a,224
 239  000D  0080     R  	mov _LCM_Display6x8_2[6],a
 239  000E  0F5E        	mov a,94
 239  000F  0200     R  	sub a,_LCM_Display6x8_2[6]
 239  0010  380A        	snz c
 239  0011  2800     R  	jmp _L35
 242  0012              #line 242 "c:\users\user\documents\htk_project\3652_adc_test_2\LCM.c"
 242  0012  0700     R  	mov a,_LCM_Display6x8_2[7]
 242  0013  0080     R  	mov _LCM_SetAddress_2[0],a
 242  0014  0700     R  	mov a,_LCM_Display6x8_2[4]
 242  0015  2000     R  	call _LCM_SetAddress
 242  0016  0F06        	mov a,6
 242  0017  0080     R  	mov _LCM_Display6x8_2[9],a
"File: LCM.c         Assembler  Version HGASM0202      Page 10

 243  0018              #line 243 "c:\users\user\documents\htk_project\3652_adc_test_2\LCM.c"
 243  0018  1F00     R  	clr _LCM_Display6x8_2[5]
 243  0019              _L42:
 245  0019              #line 245 "c:\users\user\documents\htk_project\3652_adc_test_2\LCM.c"
 245  0019  0700     R  	mov a,_LCM_Display6x8_2[3]
 245  001A  0A01        	sub a,1
 245  001B  3D0A        	sz z
 245  001C  2800     R  	jmp _L37
 245  001D  0A01        	sub a,(2)-(1)
 245  001E  3D0A        	sz z
 245  001F  2800     R  	jmp _L38
 245  0020  0700     R  	mov a,_LCM_Display6x8_2[3]
 245  0021  0A03        	sub a,3
 245  0022  390A        	snz z
 245  0023  2800     R  	jmp _L44
 254  0024              #line 254 "c:\users\user\documents\htk_project\3652_adc_test_2\LCM.c"
 254  0024  0F00        	mov a,0
 254  0025  2800     R  	jmp _L45
 254  0026              _L37:
 248  0026              #line 248 "c:\users\user\documents\htk_project\3652_adc_test_2\LCM.c"
 248  0026  0700     R  	mov a,_LCM_Display6x8_2[6]
 248  0027  0080     E  	mov rb,a
 248  0028  1F00     E  	clr rc
 248  0029  3F85        	sz acc.7
 248  002A  1F80     E  	set rc
 248  002B  340A        	clr c
 248  002C  1A00     E  	rlca rb
 248  002D  0080     E  	mov rd,a
 248  002E  1A00     E  	rlca rc
 248  002F  0080     E  	mov re,a
 248  0030  0700     E  	mov a,rd
 248  0031  0380     E  	addm a,rb
 248  0032  0700     E  	mov a,re
 248  0033  1380     E  	adcm a,rc
 248  0034  340A        	clr c
 248  0035  1A80     E  	rlc rb
 248  0036  1A80     E  	rlc rc
 248  0037  0700     R  	mov a,_LCM_Display6x8_2[5]
 248  0038  0380     E  	addm a,rb
 248  0039  3C0A        	sz c
 248  003A  1480     E  	inc rc
 248  003B  0F00     R  	mov a,low offset _FONT6X8
 248  003C  0300     E  	add a,rb
 248  003D  0083        	mov mp,a
 248  003E  0F00     R  	mov a,high offset _FONT6X8
 248  003F  1300     E  	adc a,rc
 248  0040  0084        	mov sbp,a
 248  0041  2000     E  	call _Crom2Prom
 248  0042  0080     E  	mov ra,a
 248  0043  0100     E  	cpla ra
 248  0044  0080     E  	mov ra,a
 248  0045  2800     R  	jmp _L46
 248  0046              _L38:
 251  0046              #line 251 "c:\users\user\documents\htk_project\3652_adc_test_2\LCM.c"
 251  0046  0700     R  	mov a,_LCM_Display6x8_2[6]
 251  0047  0080     E  	mov rb,a
 251  0048  1F00     E  	clr rc
 251  0049  3F85        	sz acc.7
 251  004A  1F80     E  	set rc
 251  004B  340A        	clr c
"File: LCM.c         Assembler  Version HGASM0202      Page 11

 251  004C  1A00     E  	rlca rb
 251  004D  0080     E  	mov rd,a
 251  004E  1A00     E  	rlca rc
 251  004F  0080     E  	mov re,a
 251  0050  0700     E  	mov a,rd
 251  0051  0380     E  	addm a,rb
 251  0052  0700     E  	mov a,re
 251  0053  1380     E  	adcm a,rc
 251  0054  340A        	clr c
 251  0055  1A80     E  	rlc rb
 251  0056  1A80     E  	rlc rc
 251  0057  0700     R  	mov a,_LCM_Display6x8_2[5]
 251  0058  0380     E  	addm a,rb
 251  0059  3C0A        	sz c
 251  005A  1480     E  	inc rc
 251  005B  0F00     R  	mov a,low offset _FONT6X8
 251  005C  0300     E  	add a,rb
 251  005D  0083        	mov mp,a
 251  005E  0F00     R  	mov a,high offset _FONT6X8
 251  005F  1300     E  	adc a,rc
 251  0060  0084        	mov sbp,a
 251  0061  2000     E  	call _Crom2Prom
 251  0062  0080     E  	mov ra,a
 251  0063  3000     E  	set ra.7
 251  0064              _L46:
 251  0064  0700     E  	mov a,ra
 251  0065  2800     R  	jmp _L45
 251  0066              _L44:
 257  0066              #line 257 "c:\users\user\documents\htk_project\3652_adc_test_2\LCM.c"
 257  0066  0700     R  	mov a,_LCM_Display6x8_2[6]
 257  0067  0080     E  	mov rb,a
 257  0068  1F00     E  	clr rc
 257  0069  3F85        	sz acc.7
 257  006A  1F80     E  	set rc
 257  006B  340A        	clr c
 257  006C  1A00     E  	rlca rb
 257  006D  0080     E  	mov rd,a
 257  006E  1A00     E  	rlca rc
 257  006F  0080     E  	mov re,a
 257  0070  0700     E  	mov a,rd
 257  0071  0380     E  	addm a,rb
 257  0072  0700     E  	mov a,re
 257  0073  1380     E  	adcm a,rc
 257  0074  340A        	clr c
 257  0075  1A80     E  	rlc rb
 257  0076  1A80     E  	rlc rc
 257  0077  0700     R  	mov a,_LCM_Display6x8_2[5]
 257  0078  0380     E  	addm a,rb
 257  0079  3C0A        	sz c
 257  007A  1480     E  	inc rc
 257  007B  0F00     R  	mov a,low offset _FONT6X8
 257  007C  0300     E  	add a,rb
 257  007D  0083        	mov mp,a
 257  007E  0F00     R  	mov a,high offset _FONT6X8
 257  007F  1300     E  	adc a,rc
 257  0080  0084        	mov sbp,a
 257  0081  2000     E  	call _Crom2Prom
 257  0082              _L45:
 257  0082  2000     R  	call _LCM_Write_DATA
 243  0083              #line 243 "c:\users\user\documents\htk_project\3652_adc_test_2\LCM.c"
"File: LCM.c         Assembler  Version HGASM0202      Page 12

 243  0083  1480     R  	inc _LCM_Display6x8_2[5]
 243  0084  1780     R  	sdz _LCM_Display6x8_2[9]
 243  0085  2800     R  	jmp _L42
 262  0086              #line 262 "c:\users\user\documents\htk_project\3652_adc_test_2\LCM.c"
 262  0086  0F06        	mov a,6
 262  0087  0380     R  	addm a,_LCM_Display6x8_2[7]
 262  0088              _L35:
 262  0088  1480     R  	inc _LCM_Display6x8_2[8]
 262  0089              _L34:
 237  0089              #line 237 "c:\users\user\documents\htk_project\3652_adc_test_2\LCM.c"
 237  0089  0700     R  	mov a,_LCM_Display6x8_2[8]
 237  008A  0300     R  	add a,_LCM_Display6x8_2[1]
 237  008B  0083        	mov mp,a
 237  008C  1F05        	clr acc
 237  008D  1300     R  	adc a,_LCM_Display6x8_2[2]
 237  008E  0084        	mov sbp,a
 237  008F  2000     E  	call _Crom2Prom
 237  0090  0080     E  	mov ra,a
 237  0091  1080     E  	sz ra
 237  0092  2800     R  	jmp _L43
 237  0093  0003        	ret
 237  0094              _LCM_Display6x8 endp
 237  0094              #line 237 "c:\users\user\documents\htk_project\3652_adc_test_2\LCM.c"
 237  0094              #pragma debug scope 1 1
 237  0094              public _LCM_Display6x8_Num
 237  0094              #pragma debug scope 12 1
 275  0094              #line 275 "c:\users\user\documents\htk_project\3652_adc_test_2\LCM.c"
 275  0000              _LCM_Display6x8_Num .section 'code'
 275  0000              _LCM_Display6x8_Num proc
 275  0000              public _LCM_Display6x8_Num_2
 275  0000  0007[           local _LCM_Display6x8_Num_2 db 7 dup(?)	; 3,4
            00
            ]
 275  0000  0080     R  	mov _LCM_Display6x8_Num_2[3],a
 275  0001              #pragma debug variable 8 12 _LCM_Display6x8_Num_2+3 "page"
 275  0001              #pragma debug variable 8 12 _LCM_Display6x8_Num_2+0 "column"
 275  0001              #pragma debug variable 8 12 _LCM_Display6x8_Num_2+1 "NUM"
 275  0001              #pragma debug variable 8 12 _LCM_Display6x8_Num_2+2 "status"
 275  0001              #pragma debug variable 8 12 _LCM_Display6x8_Num_2+5 "b"
 275  0001              #pragma debug variable 8 12 _LCM_Display6x8_Num_2+4 "c"
 280  0001              #line 280 "c:\users\user\documents\htk_project\3652_adc_test_2\LCM.c"
 280  0001  0F09        	mov a,9
 280  0002  0200     R  	sub a,_LCM_Display6x8_Num_2[1]
 280  0003  380A        	snz c
 280  0004  2800     R  	jmp _L47
 282  0005              #line 282 "c:\users\user\documents\htk_project\3652_adc_test_2\LCM.c"
 282  0005  0700     R  	mov a,_LCM_Display6x8_Num_2[1]
 282  0006  0B10        	add a,16
 282  0007  0080     R  	mov _LCM_Display6x8_Num_2[5],a
 278  0008              #line 278 "c:\users\user\documents\htk_project\3652_adc_test_2\LCM.c"
 278  0008  0700     R  	mov a,_LCM_Display6x8_Num_2[0]
 278  0009  0300     R  	add a,_LCM_Display6x8_Num_2[0]
 278  000A  0080     E  	mov ra,a
 278  000B  0700     R  	mov a,_LCM_Display6x8_Num_2[0]
 278  000C  0380     E  	addm a,ra
 283  000D              #line 283 "c:\users\user\documents\htk_project\3652_adc_test_2\LCM.c"
 283  000D  0700     E  	mov a,ra
 283  000E  0300     E  	add a,ra
 283  000F  0080     R  	mov _LCM_SetAddress_2[0],a
 283  0010  0700     R  	mov a,_LCM_Display6x8_Num_2[3]
"File: LCM.c         Assembler  Version HGASM0202      Page 13

 283  0011  2000     R  	call _LCM_SetAddress
 283  0012  0F06        	mov a,6
 283  0013  0080     R  	mov _LCM_Display6x8_Num_2[6],a
 284  0014              #line 284 "c:\users\user\documents\htk_project\3652_adc_test_2\LCM.c"
 284  0014  1F00     R  	clr _LCM_Display6x8_Num_2[4]
 284  0015              _L55:
 286  0015              #line 286 "c:\users\user\documents\htk_project\3652_adc_test_2\LCM.c"
 286  0015  0700     R  	mov a,_LCM_Display6x8_Num_2[2]
 286  0016  0A01        	sub a,1
 286  0017  3D0A        	sz z
 286  0018  2800     R  	jmp _L50
 286  0019  0A01        	sub a,(2)-(1)
 286  001A  3D0A        	sz z
 286  001B  2800     R  	jmp _L51
 286  001C  0700     R  	mov a,_LCM_Display6x8_Num_2[2]
 286  001D  0A03        	sub a,3
 286  001E  390A        	snz z
 286  001F  2800     R  	jmp _L59
 295  0020              #line 295 "c:\users\user\documents\htk_project\3652_adc_test_2\LCM.c"
 295  0020  0F00        	mov a,0
 295  0021  2800     R  	jmp _L60
 295  0022              _L50:
 289  0022              #line 289 "c:\users\user\documents\htk_project\3652_adc_test_2\LCM.c"
 289  0022  0700     R  	mov a,_LCM_Display6x8_Num_2[5]
 289  0023  0080     E  	mov rb,a
 289  0024  1F00     E  	clr rc
 289  0025  340A        	clr c
 289  0026  1A00     E  	rlca rb
 289  0027  0080     E  	mov rd,a
 289  0028  1A00     E  	rlca rc
 289  0029  0080     E  	mov re,a
 289  002A  0700     E  	mov a,rd
 289  002B  0380     E  	addm a,rb
 289  002C  0700     E  	mov a,re
 289  002D  1380     E  	adcm a,rc
 289  002E  340A        	clr c
 289  002F  1A80     E  	rlc rb
 289  0030  1A80     E  	rlc rc
 289  0031  0700     R  	mov a,_LCM_Display6x8_Num_2[4]
 289  0032  0380     E  	addm a,rb
 289  0033  3C0A        	sz c
 289  0034  1480     E  	inc rc
 289  0035  0F00     R  	mov a,low offset _FONT6X8
 289  0036  0300     E  	add a,rb
 289  0037  0083        	mov mp,a
 289  0038  0F00     R  	mov a,high offset _FONT6X8
 289  0039  1300     E  	adc a,rc
 289  003A  0084        	mov sbp,a
 289  003B  2000     E  	call _Crom2Prom
 289  003C  0080     E  	mov ra,a
 289  003D  0100     E  	cpla ra
 289  003E  0080     E  	mov ra,a
 289  003F  2800     R  	jmp _L61
 289  0040              _L51:
 292  0040              #line 292 "c:\users\user\documents\htk_project\3652_adc_test_2\LCM.c"
 292  0040  0700     R  	mov a,_LCM_Display6x8_Num_2[5]
 292  0041  0080     E  	mov rb,a
 292  0042  1F00     E  	clr rc
 292  0043  340A        	clr c
 292  0044  1A00     E  	rlca rb
"File: LCM.c         Assembler  Version HGASM0202      Page 14

 292  0045  0080     E  	mov rd,a
 292  0046  1A00     E  	rlca rc
 292  0047  0080     E  	mov re,a
 292  0048  0700     E  	mov a,rd
 292  0049  0380     E  	addm a,rb
 292  004A  0700     E  	mov a,re
 292  004B  1380     E  	adcm a,rc
 292  004C  340A        	clr c
 292  004D  1A80     E  	rlc rb
 292  004E  1A80     E  	rlc rc
 292  004F  0700     R  	mov a,_LCM_Display6x8_Num_2[4]
 292  0050  0380     E  	addm a,rb
 292  0051  3C0A        	sz c
 292  0052  1480     E  	inc rc
 292  0053  0F00     R  	mov a,low offset _FONT6X8
 292  0054  0300     E  	add a,rb
 292  0055  0083        	mov mp,a
 292  0056  0F00     R  	mov a,high offset _FONT6X8
 292  0057  1300     E  	adc a,rc
 292  0058  0084        	mov sbp,a
 292  0059  2000     E  	call _Crom2Prom
 292  005A  0080     E  	mov ra,a
 292  005B  3000     E  	set ra.7
 292  005C              _L61:
 292  005C  0700     E  	mov a,ra
 292  005D  2800     R  	jmp _L60
 292  005E              _L59:
 298  005E              #line 298 "c:\users\user\documents\htk_project\3652_adc_test_2\LCM.c"
 298  005E  0700     R  	mov a,_LCM_Display6x8_Num_2[5]
 298  005F  0080     E  	mov rb,a
 298  0060  1F00     E  	clr rc
 298  0061  340A        	clr c
 298  0062  1A00     E  	rlca rb
 298  0063  0080     E  	mov rd,a
 298  0064  1A00     E  	rlca rc
 298  0065  0080     E  	mov re,a
 298  0066  0700     E  	mov a,rd
 298  0067  0380     E  	addm a,rb
 298  0068  0700     E  	mov a,re
 298  0069  1380     E  	adcm a,rc
 298  006A  340A        	clr c
 298  006B  1A80     E  	rlc rb
 298  006C  1A80     E  	rlc rc
 298  006D  0700     R  	mov a,_LCM_Display6x8_Num_2[4]
 298  006E  0380     E  	addm a,rb
 298  006F  3C0A        	sz c
 298  0070  1480     E  	inc rc
 298  0071  0F00     R  	mov a,low offset _FONT6X8
 298  0072  0300     E  	add a,rb
 298  0073  0083        	mov mp,a
 298  0074  0F00     R  	mov a,high offset _FONT6X8
 298  0075  1300     E  	adc a,rc
 298  0076  0084        	mov sbp,a
 298  0077  2000     E  	call _Crom2Prom
 298  0078              _L60:
 298  0078  2000     R  	call _LCM_Write_DATA
 284  0079              #line 284 "c:\users\user\documents\htk_project\3652_adc_test_2\LCM.c"
 284  0079  1480     R  	inc _LCM_Display6x8_Num_2[4]
 284  007A  1780     R  	sdz _LCM_Display6x8_Num_2[6]
 284  007B  2800     R  	jmp _L55
"File: LCM.c         Assembler  Version HGASM0202      Page 15

 284  007C              _L47:
 284  007C  0003        	ret
 284  007D              _LCM_Display6x8_Num endp
 284  007D              #line 284 "c:\users\user\documents\htk_project\3652_adc_test_2\LCM.c"
 284  007D              #pragma debug scope 1 1
 284  007D              public _LCM_Display8x16
 284  007D              #pragma debug scope 13 1
 315  007D              #line 315 "c:\users\user\documents\htk_project\3652_adc_test_2\LCM.c"
 315  0000              _LCM_Display8x16 .section 'code'
 315  0000              _LCM_Display8x16 proc
 315  0000              public _LCM_Display8x16_2
 315  0000  000E[           local _LCM_Display8x16_2 db 14 dup(?)	; 4,10
            00
            ]
 315  0000  0080     R  	mov _LCM_Display8x16_2[4],a
 315  0001              #pragma debug variable 8 13 _LCM_Display8x16_2+4 "page"
 315  0001              #pragma debug variable 8 13 _LCM_Display8x16_2+0 "column"
 315  0001              #pragma debug pointer 43 8 13
 315  0001              #pragma debug pointer 43 8 13
 315  0001              #pragma debug variable 43 13 _LCM_Display8x16_2+1 "string"
 315  0001              #pragma debug variable 8 13 _LCM_Display8x16_2+3 "status"
 315  0001              #pragma debug variable 8 13 _LCM_Display8x16_2+5 "c"
 315  0001              #pragma debug variable 8 13 _LCM_Display8x16_2+6 "d"
 318  0001              #line 318 "c:\users\user\documents\htk_project\3652_adc_test_2\LCM.c"
 318  0001  0700     R  	mov a,_LCM_Display8x16_2[0]
 318  0002  0080     E  	mov ra,a
 318  0003  1100     E  	swapa ra
 318  0004  1985        	rr acc
 318  0005  0EF8        	and a,0f8h
 318  0006  0080     E  	mov ra,a
 318  0007  0700     E  	mov a,ra
 318  0008  0080     R  	mov _LCM_Display8x16_2[8],a
 320  0009              #line 320 "c:\users\user\documents\htk_project\3652_adc_test_2\LCM.c"
 320  0009  1F00     R  	clr _LCM_Display8x16_2[11]
 320  000A  2800     R  	jmp _L63
 320  000B              _L75:
 322  000B              #line 322 "c:\users\user\documents\htk_project\3652_adc_test_2\LCM.c"
 322  000B  0700     E  	mov a,ra
 322  000C  0BE0        	add a,224
 322  000D  0080     R  	mov _LCM_Display8x16_2[7],a
 322  000E  0F5E        	mov a,94
 322  000F  0200     R  	sub a,_LCM_Display8x16_2[7]
 322  0010  380A        	snz c
 322  0011  2800     R  	jmp _L64
 324  0012              #line 324 "c:\users\user\documents\htk_project\3652_adc_test_2\LCM.c"
 324  0012  0F02        	mov a,2
 324  0013  0080     R  	mov _LCM_Display8x16_2[9],a
 325  0014              #line 325 "c:\users\user\documents\htk_project\3652_adc_test_2\LCM.c"
 325  0014  1F00     R  	clr _LCM_Display8x16_2[6]
 325  0015              _L74:
 327  0015              #line 327 "c:\users\user\documents\htk_project\3652_adc_test_2\LCM.c"
 327  0015  0700     R  	mov a,_LCM_Display8x16_2[6]
 327  0016  0300     R  	add a,_LCM_Display8x16_2[4]
 327  0017  0080     E  	mov ra,a
 327  0018  0700     R  	mov a,_LCM_Display8x16_2[8]
 327  0019  0080     R  	mov _LCM_SetAddress_2[0],a
 327  001A  0700     E  	mov a,ra
 327  001B  2000     R  	call _LCM_SetAddress
 333  001C              #line 333 "c:\users\user\documents\htk_project\3652_adc_test_2\LCM.c"
 333  001C  0700     R  	mov a,_LCM_Display8x16_2[6]
"File: LCM.c         Assembler  Version HGASM0202      Page 16

 333  001D  0080     E  	mov rb,a
 333  001E  1F00     E  	clr rc
 333  001F  0700     E  	mov a,rb
 333  0020  0080     R  	mov _LCM_Display8x16_2[12],a
 333  0021  0700     E  	mov a,rc
 333  0022  0080     R  	mov _LCM_Display8x16_2[13],a
 333  0023  0F03        	mov a,3
 333  0024              _LI1:
 333  0024  340A        	clr c
 333  0025  1A80     R  	rlc _LCM_Display8x16_2[12]
 333  0026  1A80     R  	rlc _LCM_Display8x16_2[13]
 333  0027  1785        	sdz acc
 333  0028  2800     R  	jmp _LI1
 333  0029  0F08        	mov a,8
 333  002A  0080     R  	mov _LCM_Display8x16_2[10],a
 328  002B              #line 328 "c:\users\user\documents\htk_project\3652_adc_test_2\LCM.c"
 328  002B  1F00     R  	clr _LCM_Display8x16_2[5]
 328  002C              _L72:
 330  002C              #line 330 "c:\users\user\documents\htk_project\3652_adc_test_2\LCM.c"
 330  002C  0700     R  	mov a,_LCM_Display8x16_2[3]
 330  002D  0A01        	sub a,1
 330  002E  3D0A        	sz z
 330  002F  2800     R  	jmp _L66
 330  0030  0A01        	sub a,(2)-(1)
 330  0031  3D0A        	sz z
 330  0032  2800     R  	jmp _L67
 330  0033  0700     R  	mov a,_LCM_Display8x16_2[3]
 330  0034  0A03        	sub a,3
 330  0035  390A        	snz z
 330  0036  2800     R  	jmp _L76
 342  0037              #line 342 "c:\users\user\documents\htk_project\3652_adc_test_2\LCM.c"
 342  0037  0F00        	mov a,0
 342  0038  2800     R  	jmp _L77
 342  0039              _L66:
 333  0039              #line 333 "c:\users\user\documents\htk_project\3652_adc_test_2\LCM.c"
 333  0039  0700     R  	mov a,_LCM_Display8x16_2[7]
 333  003A  0080     E  	mov rb,a
 333  003B  1F00     E  	clr rc
 333  003C  3F85        	sz acc.7
 333  003D  1F80     E  	set rc
 333  003E  0F04        	mov a,4
 333  003F              _LI2:
 333  003F  340A        	clr c
 333  0040  1A80     E  	rlc rb
 333  0041  1A80     E  	rlc rc
 333  0042  1785        	sdz acc
 333  0043  2800     R  	jmp _LI2
 333  0044  0700     R  	mov a,_LCM_Display8x16_2[12]
 333  0045  0380     E  	addm a,rb
 333  0046  0700     R  	mov a,_LCM_Display8x16_2[13]
 333  0047  1380     E  	adcm a,rc
 333  0048  0700     R  	mov a,_LCM_Display8x16_2[5]
 333  0049  0380     E  	addm a,rb
 333  004A  3C0A        	sz c
 333  004B  1480     E  	inc rc
 333  004C  0F00     R  	mov a,low offset _FONT8X16
 333  004D  0300     E  	add a,rb
 333  004E  0083        	mov mp,a
 333  004F  0F00     R  	mov a,high offset _FONT8X16
 333  0050  1300     E  	adc a,rc
"File: LCM.c         Assembler  Version HGASM0202      Page 17

 333  0051  0084        	mov sbp,a
 333  0052  2000     E  	call _Crom2Prom
 333  0053  0080     E  	mov ra,a
 333  0054  0100     E  	cpla ra
 333  0055  0080     E  	mov ra,a
 333  0056  2800     R  	jmp _L79
 333  0057              _L67:
 337  0057              #line 337 "c:\users\user\documents\htk_project\3652_adc_test_2\LCM.c"
 337  0057  0700     R  	mov a,_LCM_Display8x16_2[7]
 337  0058  0080     E  	mov rb,a
 337  0059  1F00     E  	clr rc
 337  005A  3F85        	sz acc.7
 337  005B  1F80     E  	set rc
 337  005C  0F04        	mov a,4
 337  005D              _LI3:
 337  005D  340A        	clr c
 337  005E  1A80     E  	rlc rb
 337  005F  1A80     E  	rlc rc
 337  0060  1785        	sdz acc
 337  0061  2800     R  	jmp _LI3
 337  0062  0700     R  	mov a,_LCM_Display8x16_2[5]
 337  0063  0380     E  	addm a,rb
 337  0064  3C0A        	sz c
 337  0065  1480     E  	inc rc
 336  0066              #line 336 "c:\users\user\documents\htk_project\3652_adc_test_2\LCM.c"
 336  0066  1E00     R  	snz _LCM_Display8x16_2[6]
 336  0067  2800     R  	jmp _L78
 339  0068              #line 339 "c:\users\user\documents\htk_project\3652_adc_test_2\LCM.c"
 339  0068  0F00     R  	mov a,low (offset _FONT8X16+8)
 339  0069  0300     E  	add a,rb
 339  006A  0083        	mov mp,a
 339  006B  0F00     R  	mov a,high (offset _FONT8X16+8)
 339  006C  1300     E  	adc a,rc
 339  006D  0084        	mov sbp,a
 339  006E  2000     E  	call _Crom2Prom
 339  006F  0080     E  	mov ra,a
 339  0070  3000     E  	set ra.7
 339  0071              _L79:
 339  0071  0700     E  	mov a,ra
 339  0072  2800     R  	jmp _L77
 339  0073              _L76:
 345  0073              #line 345 "c:\users\user\documents\htk_project\3652_adc_test_2\LCM.c"
 345  0073  0700     R  	mov a,_LCM_Display8x16_2[7]
 345  0074  0080     E  	mov rb,a
 345  0075  1F00     E  	clr rc
 345  0076  3F85        	sz acc.7
 345  0077  1F80     E  	set rc
 345  0078  0F04        	mov a,4
 345  0079              _LI4:
 345  0079  340A        	clr c
 345  007A  1A80     E  	rlc rb
 345  007B  1A80     E  	rlc rc
 345  007C  1785        	sdz acc
 345  007D  2800     R  	jmp _LI4
 345  007E  0700     R  	mov a,_LCM_Display8x16_2[12]
 345  007F  0380     E  	addm a,rb
 345  0080  0700     R  	mov a,_LCM_Display8x16_2[13]
 345  0081  1380     E  	adcm a,rc
 345  0082  0700     R  	mov a,_LCM_Display8x16_2[5]
 345  0083  0380     E  	addm a,rb
"File: LCM.c         Assembler  Version HGASM0202      Page 18

 345  0084  3C0A        	sz c
 345  0085  1480     E  	inc rc
 345  0086              _L78:
 345  0086  0F00     R  	mov a,low offset _FONT8X16
 345  0087  0300     E  	add a,rb
 345  0088  0083        	mov mp,a
 345  0089  0F00     R  	mov a,high offset _FONT8X16
 345  008A  1300     E  	adc a,rc
 345  008B  0084        	mov sbp,a
 345  008C  2000     E  	call _Crom2Prom
 345  008D              _L77:
 345  008D  2000     R  	call _LCM_Write_DATA
 328  008E              #line 328 "c:\users\user\documents\htk_project\3652_adc_test_2\LCM.c"
 328  008E  1480     R  	inc _LCM_Display8x16_2[5]
 328  008F  1780     R  	sdz _LCM_Display8x16_2[10]
 328  0090  2800     R  	jmp _L72
 325  0091              #line 325 "c:\users\user\documents\htk_project\3652_adc_test_2\LCM.c"
 325  0091  1480     R  	inc _LCM_Display8x16_2[6]
 325  0092  1780     R  	sdz _LCM_Display8x16_2[9]
 325  0093  2800     R  	jmp _L74
 351  0094              #line 351 "c:\users\user\documents\htk_project\3652_adc_test_2\LCM.c"
 351  0094  0F08        	mov a,8
 351  0095  0380     R  	addm a,_LCM_Display8x16_2[8]
 351  0096              _L64:
 351  0096  1480     R  	inc _LCM_Display8x16_2[11]
 351  0097              _L63:
 320  0097              #line 320 "c:\users\user\documents\htk_project\3652_adc_test_2\LCM.c"
 320  0097  0700     R  	mov a,_LCM_Display8x16_2[11]
 320  0098  0300     R  	add a,_LCM_Display8x16_2[1]
 320  0099  0083        	mov mp,a
 320  009A  1F05        	clr acc
 320  009B  1300     R  	adc a,_LCM_Display8x16_2[2]
 320  009C  0084        	mov sbp,a
 320  009D  2000     E  	call _Crom2Prom
 320  009E  0080     E  	mov ra,a
 320  009F  1080     E  	sz ra
 320  00A0  2800     R  	jmp _L75
 320  00A1  0003        	ret
 320  00A2              _LCM_Display8x16 endp
 320  00A2              #line 320 "c:\users\user\documents\htk_project\3652_adc_test_2\LCM.c"
 320  00A2              #pragma debug scope 1 1
 320  00A2              public _FONT8X16
 320  0000              @crom	.section 'crom'

 177  0000              #line 177 "c:\users\user\documents\htk_project\3652_adc_test_2\Font.h"
 177  0000              @crom	.section	'crom'
 177  0000              _FONT8X16:
 177  0000              #pragma debug array 44 8 16 1
 177  0000              #pragma debug array 44 8 16 1
 177  0000              #pragma debug array 45 44 95 1
 177  0000              #pragma debug array 45 44 95 1
 177  0000              #pragma debug variable 45 1 _FONT8X16 "FONT8X16"
 177  0000              	db 0
 177  0001              	db 0
 177  0001              	db 0
 177  0002              	db 0
 177  0002              	db 0
 177  0003              	db 0
 177  0003              	db 0
 177  0004              	db 0
"File: Font.h        Assembler  Version HGASM0202      Page 19

 177  0004              	db 0
 177  0005              	db 0
 177  0005              	db 0
 177  0006              	db 0
 177  0006              	db 0
 177  0007              	db 0
 177  0007              	db 0
 177  0008              	db 0
 177  0008              	db 0
 177  0009              	db 0
 177  0009              	db 0
 177  000A              	db -8
 177  000A              	db 0
 177  000B              	db 0
 177  000B              	db 0
 177  000C              	db 0
 177  000C              	db 0
 177  000D              	db 0
 177  000D              	db 0
 177  000E              	db 51
 177  000E              	db 48
 177  000F              	db 0
 177  000F              	db 0
 177  0010              	db 0
 177  0010              	db 0
 177  0011              	db 16
 177  0011              	db 12
 177  0012              	db 6
 177  0012              	db 16
 177  0013              	db 12
 177  0013              	db 6
 177  0014              	db 0
 177  0014              	db 0
 177  0015              	db 0
 177  0015              	db 0
 177  0016              	db 0
 177  0016              	db 0
 177  0017              	db 0
 177  0017              	db 0
 177  0018              	db 0
 177  0018              	db 64
 177  0019              	db -64
 177  0019              	db 120
 177  001A              	db 64
 177  001A              	db -64
 177  001B              	db 120
 177  001B              	db 64
 177  001C              	db 0
 177  001C              	db 4
 177  001D              	db 63
 177  001D              	db 4
 177  001E              	db 4
 177  001E              	db 63
 177  001F              	db 4
 177  001F              	db 4
 177  0020              	db 0
 177  0020              	db 0
 177  0021              	db 112
 177  0021              	db -120
 177  0022              	db -4
"File: Font.h        Assembler  Version HGASM0202      Page 20

 177  0022              	db 8
 177  0023              	db 48
 177  0023              	db 0
 177  0024              	db 0
 177  0024              	db 0
 177  0025              	db 24
 177  0025              	db 32
 177  0026              	db -1
 177  0026              	db 33
 177  0027              	db 30
 177  0027              	db 0
 177  0028              	db 0
 177  0028              	db -16
 177  0029              	db 8
 177  0029              	db -16
 177  002A              	db 0
 177  002A              	db -32
 177  002B              	db 24
 177  002B              	db 0
 177  002C              	db 0
 177  002C              	db 0
 177  002D              	db 33
 177  002D              	db 28
 177  002E              	db 3
 177  002E              	db 30
 177  002F              	db 33
 177  002F              	db 30
 177  0030              	db 0
 177  0030              	db 0
 177  0031              	db -16
 177  0031              	db 8
 177  0032              	db -120
 177  0032              	db 112
 177  0033              	db 0
 177  0033              	db 0
 177  0034              	db 0
 177  0034              	db 30
 177  0035              	db 33
 177  0035              	db 35
 177  0036              	db 36
 177  0036              	db 25
 177  0037              	db 39
 177  0037              	db 33
 177  0038              	db 16
 177  0038              	db 16
 177  0039              	db 22
 177  0039              	db 14
 177  003A              	db 0
 177  003A              	db 0
 177  003B              	db 0
 177  003B              	db 0
 177  003C              	db 0
 177  003C              	db 0
 177  003D              	db 0
 177  003D              	db 0
 177  003E              	db 0
 177  003E              	db 0
 177  003F              	db 0
 177  003F              	db 0
 177  0040              	db 0
"File: Font.h        Assembler  Version HGASM0202      Page 21

 177  0040              	db 0
 177  0041              	db 0
 177  0041              	db 0
 177  0042              	db -32
 177  0042              	db 24
 177  0043              	db 4
 177  0043              	db 2
 177  0044              	db 0
 177  0044              	db 0
 177  0045              	db 0
 177  0045              	db 0
 177  0046              	db 7
 177  0046              	db 24
 177  0047              	db 32
 177  0047              	db 64
 177  0048              	db 0
 177  0048              	db 0
 177  0049              	db 2
 177  0049              	db 4
 177  004A              	db 24
 177  004A              	db -32
 177  004B              	db 0
 177  004B              	db 0
 177  004C              	db 0
 177  004C              	db 0
 177  004D              	db 64
 177  004D              	db 32
 177  004E              	db 24
 177  004E              	db 7
 177  004F              	db 0
 177  004F              	db 0
 177  0050              	db 0
 177  0050              	db 64
 177  0051              	db 64
 177  0051              	db -128
 177  0052              	db -16
 177  0052              	db -128
 177  0053              	db 64
 177  0053              	db 64
 177  0054              	db 0
 177  0054              	db 2
 177  0055              	db 2
 177  0055              	db 1
 177  0056              	db 15
 177  0056              	db 1
 177  0057              	db 2
 177  0057              	db 2
 177  0058              	db 0
 177  0058              	db 0
 177  0059              	db 0
 177  0059              	db 0
 177  005A              	db -16
 177  005A              	db 0
 177  005B              	db 0
 177  005B              	db 0
 177  005C              	db 0
 177  005C              	db 1
 177  005D              	db 1
 177  005D              	db 1
 177  005E              	db 31
"File: Font.h        Assembler  Version HGASM0202      Page 22

 177  005E              	db 1
 177  005F              	db 1
 177  005F              	db 1
 177  0060              	db 0
 177  0060              	db 0
 177  0061              	db 0
 177  0061              	db 0
 177  0062              	db 0
 177  0062              	db 0
 177  0063              	db 0
 177  0063              	db 0
 177  0064              	db 0
 177  0064              	db -128
 177  0065              	db -80
 177  0065              	db 112
 177  0066              	db 0
 177  0066              	db 0
 177  0067              	db 0
 177  0067              	db 0
 177  0068              	db 0
 177  0068              	db 0
 177  0069              	db 0
 177  0069              	db 0
 177  006A              	db 0
 177  006A              	db 0
 177  006B              	db 0
 177  006B              	db 0
 177  006C              	db 0
 177  006C              	db 0
 177  006D              	db 1
 177  006D              	db 1
 177  006E              	db 1
 177  006E              	db 1
 177  006F              	db 1
 177  006F              	db 1
 177  0070              	db 1
 177  0070              	db 0
 177  0071              	db 0
 177  0071              	db 0
 177  0072              	db 0
 177  0072              	db 0
 177  0073              	db 0
 177  0073              	db 0
 177  0074              	db 0
 177  0074              	db 0
 177  0075              	db 48
 177  0075              	db 48
 177  0076              	db 0
 177  0076              	db 0
 177  0077              	db 0
 177  0077              	db 0
 177  0078              	db 0
 177  0078              	db 0
 177  0079              	db 0
 177  0079              	db 0
 177  007A              	db 0
 177  007A              	db -128
 177  007B              	db 96
 177  007B              	db 24
 177  007C              	db 4
"File: Font.h        Assembler  Version HGASM0202      Page 23

 177  007C              	db 0
 177  007D              	db 96
 177  007D              	db 24
 177  007E              	db 6
 177  007E              	db 1
 177  007F              	db 0
 177  007F              	db 0
 177  0080              	db 0
 177  0080              	db 0
 177  0081              	db -32
 177  0081              	db 16
 177  0082              	db 8
 177  0082              	db 8
 177  0083              	db 16
 177  0083              	db -32
 177  0084              	db 0
 177  0084              	db 0
 177  0085              	db 15
 177  0085              	db 16
 177  0086              	db 32
 177  0086              	db 32
 177  0087              	db 16
 177  0087              	db 15
 177  0088              	db 0
 177  0088              	db 0
 177  0089              	db 16
 177  0089              	db 16
 177  008A              	db -8
 177  008A              	db 0
 177  008B              	db 0
 177  008B              	db 0
 177  008C              	db 0
 177  008C              	db 0
 177  008D              	db 32
 177  008D              	db 32
 177  008E              	db 63
 177  008E              	db 32
 177  008F              	db 32
 177  008F              	db 0
 177  0090              	db 0
 177  0090              	db 0
 177  0091              	db 112
 177  0091              	db 8
 177  0092              	db 8
 177  0092              	db 8
 177  0093              	db -120
 177  0093              	db 112
 177  0094              	db 0
 177  0094              	db 0
 177  0095              	db 48
 177  0095              	db 40
 177  0096              	db 36
 177  0096              	db 34
 177  0097              	db 33
 177  0097              	db 48
 177  0098              	db 0
 177  0098              	db 0
 177  0099              	db 48
 177  0099              	db 8
 177  009A              	db -120
"File: Font.h        Assembler  Version HGASM0202      Page 24

 177  009A              	db -120
 177  009B              	db 72
 177  009B              	db 48
 177  009C              	db 0
 177  009C              	db 0
 177  009D              	db 24
 177  009D              	db 32
 177  009E              	db 32
 177  009E              	db 32
 177  009F              	db 17
 177  009F              	db 14
 177  00A0              	db 0
 177  00A0              	db 0
 177  00A1              	db 0
 177  00A1              	db -64
 177  00A2              	db 32
 177  00A2              	db 16
 177  00A3              	db -8
 177  00A3              	db 0
 177  00A4              	db 0
 177  00A4              	db 0
 177  00A5              	db 7
 177  00A5              	db 4
 177  00A6              	db 36
 177  00A6              	db 36
 177  00A7              	db 63
 177  00A7              	db 36
 177  00A8              	db 0
 177  00A8              	db 0
 177  00A9              	db -8
 177  00A9              	db 8
 177  00AA              	db -120
 177  00AA              	db -120
 177  00AB              	db 8
 177  00AB              	db 8
 177  00AC              	db 0
 177  00AC              	db 0
 177  00AD              	db 25
 177  00AD              	db 33
 177  00AE              	db 32
 177  00AE              	db 32
 177  00AF              	db 17
 177  00AF              	db 14
 177  00B0              	db 0
 177  00B0              	db 0
 177  00B1              	db -32
 177  00B1              	db 16
 177  00B2              	db -120
 177  00B2              	db -120
 177  00B3              	db 24
 177  00B3              	db 0
 177  00B4              	db 0
 177  00B4              	db 0
 177  00B5              	db 15
 177  00B5              	db 17
 177  00B6              	db 32
 177  00B6              	db 32
 177  00B7              	db 17
 177  00B7              	db 14
 177  00B8              	db 0
"File: Font.h        Assembler  Version HGASM0202      Page 25

 177  00B8              	db 0
 177  00B9              	db 56
 177  00B9              	db 8
 177  00BA              	db 8
 177  00BA              	db -56
 177  00BB              	db 56
 177  00BB              	db 8
 177  00BC              	db 0
 177  00BC              	db 0
 177  00BD              	db 0
 177  00BD              	db 0
 177  00BE              	db 63
 177  00BE              	db 0
 177  00BF              	db 0
 177  00BF              	db 0
 177  00C0              	db 0
 177  00C0              	db 0
 177  00C1              	db 112
 177  00C1              	db -120
 177  00C2              	db 8
 177  00C2              	db 8
 177  00C3              	db -120
 177  00C3              	db 112
 177  00C4              	db 0
 177  00C4              	db 0
 177  00C5              	db 28
 177  00C5              	db 34
 177  00C6              	db 33
 177  00C6              	db 33
 177  00C7              	db 34
 177  00C7              	db 28
 177  00C8              	db 0
 177  00C8              	db 0
 177  00C9              	db -32
 177  00C9              	db 16
 177  00CA              	db 8
 177  00CA              	db 8
 177  00CB              	db 16
 177  00CB              	db -32
 177  00CC              	db 0
 177  00CC              	db 0
 177  00CD              	db 0
 177  00CD              	db 49
 177  00CE              	db 34
 177  00CE              	db 34
 177  00CF              	db 17
 177  00CF              	db 15
 177  00D0              	db 0
 177  00D0              	db 0
 177  00D1              	db 0
 177  00D1              	db 0
 177  00D2              	db -64
 177  00D2              	db -64
 177  00D3              	db 0
 177  00D3              	db 0
 177  00D4              	db 0
 177  00D4              	db 0
 177  00D5              	db 0
 177  00D5              	db 0
 177  00D6              	db 48
"File: Font.h        Assembler  Version HGASM0202      Page 26

 177  00D6              	db 48
 177  00D7              	db 0
 177  00D7              	db 0
 177  00D8              	db 0
 177  00D8              	db 0
 177  00D9              	db 0
 177  00D9              	db 0
 177  00DA              	db -128
 177  00DA              	db 0
 177  00DB              	db 0
 177  00DB              	db 0
 177  00DC              	db 0
 177  00DC              	db 0
 177  00DD              	db 0
 177  00DD              	db -128
 177  00DE              	db 96
 177  00DE              	db 0
 177  00DF              	db 0
 177  00DF              	db 0
 177  00E0              	db 0
 177  00E0              	db 0
 177  00E1              	db 0
 177  00E1              	db -128
 177  00E2              	db 64
 177  00E2              	db 32
 177  00E3              	db 16
 177  00E3              	db 8
 177  00E4              	db 0
 177  00E4              	db 0
 177  00E5              	db 1
 177  00E5              	db 2
 177  00E6              	db 4
 177  00E6              	db 8
 177  00E7              	db 16
 177  00E7              	db 32
 177  00E8              	db 0
 177  00E8              	db 64
 177  00E9              	db 64
 177  00E9              	db 64
 177  00EA              	db 64
 177  00EA              	db 64
 177  00EB              	db 64
 177  00EB              	db 64
 177  00EC              	db 0
 177  00EC              	db 4
 177  00ED              	db 4
 177  00ED              	db 4
 177  00EE              	db 4
 177  00EE              	db 4
 177  00EF              	db 4
 177  00EF              	db 4
 177  00F0              	db 0
 177  00F0              	db 0
 177  00F1              	db 8
 177  00F1              	db 16
 177  00F2              	db 32
 177  00F2              	db 64
 177  00F3              	db -128
 177  00F3              	db 0
 177  00F4              	db 0
"File: Font.h        Assembler  Version HGASM0202      Page 27

 177  00F4              	db 0
 177  00F5              	db 32
 177  00F5              	db 16
 177  00F6              	db 8
 177  00F6              	db 4
 177  00F7              	db 2
 177  00F7              	db 1
 177  00F8              	db 0
 177  00F8              	db 0
 177  00F9              	db 112
 177  00F9              	db 72
 177  00FA              	db 8
 177  00FA              	db 8
 177  00FB              	db 8
 177  00FB              	db -16
 177  00FC              	db 0
 177  00FC              	db 0
 177  00FD              	db 0
 177  00FD              	db 0
 177  00FE              	db 48
 177  00FE              	db 54
 177  00FF              	db 1
 177  00FF              	db 0
 177  0100              	db 0
 177  0100              	db -64
 177  0101              	db 48
 177  0101              	db -56
 177  0102              	db 40
 177  0102              	db -24
 177  0103              	db 16
 177  0103              	db -32
 177  0104              	db 0
 177  0104              	db 7
 177  0105              	db 24
 177  0105              	db 39
 177  0106              	db 36
 177  0106              	db 35
 177  0107              	db 20
 177  0107              	db 11
 177  0108              	db 0
 177  0108              	db 0
 177  0109              	db 0
 177  0109              	db -64
 177  010A              	db 56
 177  010A              	db -32
 177  010B              	db 0
 177  010B              	db 0
 177  010C              	db 0
 177  010C              	db 32
 177  010D              	db 60
 177  010D              	db 35
 177  010E              	db 2
 177  010E              	db 2
 177  010F              	db 39
 177  010F              	db 56
 177  0110              	db 32
 177  0110              	db 8
 177  0111              	db -8
 177  0111              	db -120
 177  0112              	db -120
"File: Font.h        Assembler  Version HGASM0202      Page 28

 177  0112              	db -120
 177  0113              	db 112
 177  0113              	db 0
 177  0114              	db 0
 177  0114              	db 32
 177  0115              	db 63
 177  0115              	db 32
 177  0116              	db 32
 177  0116              	db 32
 177  0117              	db 17
 177  0117              	db 14
 177  0118              	db 0
 177  0118              	db -64
 177  0119              	db 48
 177  0119              	db 8
 177  011A              	db 8
 177  011A              	db 8
 177  011B              	db 8
 177  011B              	db 56
 177  011C              	db 0
 177  011C              	db 7
 177  011D              	db 24
 177  011D              	db 32
 177  011E              	db 32
 177  011E              	db 32
 177  011F              	db 16
 177  011F              	db 8
 177  0120              	db 0
 177  0120              	db 8
 177  0121              	db -8
 177  0121              	db 8
 177  0122              	db 8
 177  0122              	db 8
 177  0123              	db 16
 177  0123              	db -32
 177  0124              	db 0
 177  0124              	db 32
 177  0125              	db 63
 177  0125              	db 32
 177  0126              	db 32
 177  0126              	db 32
 177  0127              	db 16
 177  0127              	db 15
 177  0128              	db 0
 177  0128              	db 8
 177  0129              	db -8
 177  0129              	db -120
 177  012A              	db -120
 177  012A              	db -24
 177  012B              	db 8
 177  012B              	db 16
 177  012C              	db 0
 177  012C              	db 32
 177  012D              	db 63
 177  012D              	db 32
 177  012E              	db 32
 177  012E              	db 35
 177  012F              	db 32
 177  012F              	db 24
 177  0130              	db 0
"File: Font.h        Assembler  Version HGASM0202      Page 29

 177  0130              	db 8
 177  0131              	db -8
 177  0131              	db -120
 177  0132              	db -120
 177  0132              	db -24
 177  0133              	db 8
 177  0133              	db 16
 177  0134              	db 0
 177  0134              	db 32
 177  0135              	db 63
 177  0135              	db 32
 177  0136              	db 0
 177  0136              	db 3
 177  0137              	db 0
 177  0137              	db 0
 177  0138              	db 0
 177  0138              	db -64
 177  0139              	db 48
 177  0139              	db 8
 177  013A              	db 8
 177  013A              	db 8
 177  013B              	db 56
 177  013B              	db 0
 177  013C              	db 0
 177  013C              	db 7
 177  013D              	db 24
 177  013D              	db 32
 177  013E              	db 32
 177  013E              	db 34
 177  013F              	db 30
 177  013F              	db 2
 177  0140              	db 0
 177  0140              	db 8
 177  0141              	db -8
 177  0141              	db 8
 177  0142              	db 0
 177  0142              	db 0
 177  0143              	db 8
 177  0143              	db -8
 177  0144              	db 8
 177  0144              	db 32
 177  0145              	db 63
 177  0145              	db 33
 177  0146              	db 1
 177  0146              	db 1
 177  0147              	db 33
 177  0147              	db 63
 177  0148              	db 32
 177  0148              	db 0
 177  0149              	db 8
 177  0149              	db 8
 177  014A              	db -8
 177  014A              	db 8
 177  014B              	db 8
 177  014B              	db 0
 177  014C              	db 0
 177  014C              	db 0
 177  014D              	db 32
 177  014D              	db 32
 177  014E              	db 63
"File: Font.h        Assembler  Version HGASM0202      Page 30

 177  014E              	db 32
 177  014F              	db 32
 177  014F              	db 0
 177  0150              	db 0
 177  0150              	db 0
 177  0151              	db 0
 177  0151              	db 8
 177  0152              	db 8
 177  0152              	db -8
 177  0153              	db 8
 177  0153              	db 8
 177  0154              	db 0
 177  0154              	db -64
 177  0155              	db -128
 177  0155              	db -128
 177  0156              	db -128
 177  0156              	db 127
 177  0157              	db 0
 177  0157              	db 0
 177  0158              	db 0
 177  0158              	db 8
 177  0159              	db -8
 177  0159              	db -120
 177  015A              	db -64
 177  015A              	db 40
 177  015B              	db 24
 177  015B              	db 8
 177  015C              	db 0
 177  015C              	db 32
 177  015D              	db 63
 177  015D              	db 32
 177  015E              	db 1
 177  015E              	db 38
 177  015F              	db 56
 177  015F              	db 32
 177  0160              	db 0
 177  0160              	db 8
 177  0161              	db -8
 177  0161              	db 8
 177  0162              	db 0
 177  0162              	db 0
 177  0163              	db 0
 177  0163              	db 0
 177  0164              	db 0
 177  0164              	db 32
 177  0165              	db 63
 177  0165              	db 32
 177  0166              	db 32
 177  0166              	db 32
 177  0167              	db 32
 177  0167              	db 48
 177  0168              	db 0
 177  0168              	db 8
 177  0169              	db -8
 177  0169              	db -8
 177  016A              	db 0
 177  016A              	db -8
 177  016B              	db -8
 177  016B              	db 8
 177  016C              	db 0
"File: Font.h        Assembler  Version HGASM0202      Page 31

 177  016C              	db 32
 177  016D              	db 63
 177  016D              	db 0
 177  016E              	db 63
 177  016E              	db 0
 177  016F              	db 63
 177  016F              	db 32
 177  0170              	db 0
 177  0170              	db 8
 177  0171              	db -8
 177  0171              	db 48
 177  0172              	db -64
 177  0172              	db 0
 177  0173              	db 8
 177  0173              	db -8
 177  0174              	db 8
 177  0174              	db 32
 177  0175              	db 63
 177  0175              	db 32
 177  0176              	db 0
 177  0176              	db 7
 177  0177              	db 24
 177  0177              	db 63
 177  0178              	db 0
 177  0178              	db -32
 177  0179              	db 16
 177  0179              	db 8
 177  017A              	db 8
 177  017A              	db 8
 177  017B              	db 16
 177  017B              	db -32
 177  017C              	db 0
 177  017C              	db 15
 177  017D              	db 16
 177  017D              	db 32
 177  017E              	db 32
 177  017E              	db 32
 177  017F              	db 16
 177  017F              	db 15
 177  0180              	db 0
 177  0180              	db 8
 177  0181              	db -8
 177  0181              	db 8
 177  0182              	db 8
 177  0182              	db 8
 177  0183              	db 8
 177  0183              	db -16
 177  0184              	db 0
 177  0184              	db 32
 177  0185              	db 63
 177  0185              	db 33
 177  0186              	db 1
 177  0186              	db 1
 177  0187              	db 1
 177  0187              	db 0
 177  0188              	db 0
 177  0188              	db -32
 177  0189              	db 16
 177  0189              	db 8
 177  018A              	db 8
"File: Font.h        Assembler  Version HGASM0202      Page 32

 177  018A              	db 8
 177  018B              	db 16
 177  018B              	db -32
 177  018C              	db 0
 177  018C              	db 15
 177  018D              	db 24
 177  018D              	db 36
 177  018E              	db 36
 177  018E              	db 56
 177  018F              	db 80
 177  018F              	db 79
 177  0190              	db 0
 177  0190              	db 8
 177  0191              	db -8
 177  0191              	db -120
 177  0192              	db -120
 177  0192              	db -120
 177  0193              	db -120
 177  0193              	db 112
 177  0194              	db 0
 177  0194              	db 32
 177  0195              	db 63
 177  0195              	db 32
 177  0196              	db 0
 177  0196              	db 3
 177  0197              	db 12
 177  0197              	db 48
 177  0198              	db 32
 177  0198              	db 0
 177  0199              	db 112
 177  0199              	db -120
 177  019A              	db 8
 177  019A              	db 8
 177  019B              	db 8
 177  019B              	db 56
 177  019C              	db 0
 177  019C              	db 0
 177  019D              	db 56
 177  019D              	db 32
 177  019E              	db 33
 177  019E              	db 33
 177  019F              	db 34
 177  019F              	db 28
 177  01A0              	db 0
 177  01A0              	db 24
 177  01A1              	db 8
 177  01A1              	db 8
 177  01A2              	db -8
 177  01A2              	db 8
 177  01A3              	db 8
 177  01A3              	db 24
 177  01A4              	db 0
 177  01A4              	db 0
 177  01A5              	db 0
 177  01A5              	db 32
 177  01A6              	db 63
 177  01A6              	db 32
 177  01A7              	db 0
 177  01A7              	db 0
 177  01A8              	db 0
"File: Font.h        Assembler  Version HGASM0202      Page 33

 177  01A8              	db 8
 177  01A9              	db -8
 177  01A9              	db 8
 177  01AA              	db 0
 177  01AA              	db 0
 177  01AB              	db 8
 177  01AB              	db -8
 177  01AC              	db 8
 177  01AC              	db 0
 177  01AD              	db 31
 177  01AD              	db 32
 177  01AE              	db 32
 177  01AE              	db 32
 177  01AF              	db 32
 177  01AF              	db 31
 177  01B0              	db 0
 177  01B0              	db 8
 177  01B1              	db 120
 177  01B1              	db -120
 177  01B2              	db 0
 177  01B2              	db 0
 177  01B3              	db -56
 177  01B3              	db 56
 177  01B4              	db 8
 177  01B4              	db 0
 177  01B5              	db 0
 177  01B5              	db 7
 177  01B6              	db 56
 177  01B6              	db 14
 177  01B7              	db 1
 177  01B7              	db 0
 177  01B8              	db 0
 177  01B8              	db -8
 177  01B9              	db 8
 177  01B9              	db 0
 177  01BA              	db -8
 177  01BA              	db 0
 177  01BB              	db 8
 177  01BB              	db -8
 177  01BC              	db 0
 177  01BC              	db 3
 177  01BD              	db 60
 177  01BD              	db 7
 177  01BE              	db 0
 177  01BE              	db 7
 177  01BF              	db 60
 177  01BF              	db 3
 177  01C0              	db 0
 177  01C0              	db 8
 177  01C1              	db 24
 177  01C1              	db 104
 177  01C2              	db -128
 177  01C2              	db -128
 177  01C3              	db 104
 177  01C3              	db 24
 177  01C4              	db 8
 177  01C4              	db 32
 177  01C5              	db 48
 177  01C5              	db 44
 177  01C6              	db 3
"File: Font.h        Assembler  Version HGASM0202      Page 34

 177  01C6              	db 3
 177  01C7              	db 44
 177  01C7              	db 48
 177  01C8              	db 32
 177  01C8              	db 8
 177  01C9              	db 56
 177  01C9              	db -56
 177  01CA              	db 0
 177  01CA              	db -56
 177  01CB              	db 56
 177  01CB              	db 8
 177  01CC              	db 0
 177  01CC              	db 0
 177  01CD              	db 0
 177  01CD              	db 32
 177  01CE              	db 63
 177  01CE              	db 32
 177  01CF              	db 0
 177  01CF              	db 0
 177  01D0              	db 0
 177  01D0              	db 16
 177  01D1              	db 8
 177  01D1              	db 8
 177  01D2              	db 8
 177  01D2              	db -56
 177  01D3              	db 56
 177  01D3              	db 8
 177  01D4              	db 0
 177  01D4              	db 32
 177  01D5              	db 56
 177  01D5              	db 38
 177  01D6              	db 33
 177  01D6              	db 32
 177  01D7              	db 32
 177  01D7              	db 24
 177  01D8              	db 0
 177  01D8              	db 0
 177  01D9              	db 0
 177  01D9              	db 0
 177  01DA              	db -2
 177  01DA              	db 2
 177  01DB              	db 2
 177  01DB              	db 2
 177  01DC              	db 0
 177  01DC              	db 0
 177  01DD              	db 0
 177  01DD              	db 0
 177  01DE              	db 127
 177  01DE              	db 64
 177  01DF              	db 64
 177  01DF              	db 64
 177  01E0              	db 0
 177  01E0              	db 0
 177  01E1              	db 12
 177  01E1              	db 48
 177  01E2              	db -64
 177  01E2              	db 0
 177  01E3              	db 0
 177  01E3              	db 0
 177  01E4              	db 0
"File: Font.h        Assembler  Version HGASM0202      Page 35

 177  01E4              	db 0
 177  01E5              	db 0
 177  01E5              	db 0
 177  01E6              	db 1
 177  01E6              	db 6
 177  01E7              	db 56
 177  01E7              	db -64
 177  01E8              	db 0
 177  01E8              	db 0
 177  01E9              	db 2
 177  01E9              	db 2
 177  01EA              	db 2
 177  01EA              	db -2
 177  01EB              	db 0
 177  01EB              	db 0
 177  01EC              	db 0
 177  01EC              	db 0
 177  01ED              	db 64
 177  01ED              	db 64
 177  01EE              	db 64
 177  01EE              	db 127
 177  01EF              	db 0
 177  01EF              	db 0
 177  01F0              	db 0
 177  01F0              	db 0
 177  01F1              	db 0
 177  01F1              	db 4
 177  01F2              	db 2
 177  01F2              	db 2
 177  01F3              	db 2
 177  01F3              	db 4
 177  01F4              	db 0
 177  01F4              	db 0
 177  01F5              	db 0
 177  01F5              	db 0
 177  01F6              	db 0
 177  01F6              	db 0
 177  01F7              	db 0
 177  01F7              	db 0
 177  01F8              	db 0
 177  01F8              	db 0
 177  01F9              	db 0
 177  01F9              	db 0
 177  01FA              	db 0
 177  01FA              	db 0
 177  01FB              	db 0
 177  01FB              	db 0
 177  01FC              	db 0
 177  01FC              	db -128
 177  01FD              	db -128
 177  01FD              	db -128
 177  01FE              	db -128
 177  01FE              	db -128
 177  01FF              	db -128
 177  01FF              	db -128
 177  0200              	db -128
 177  0200              	db 0
 177  0201              	db 2
 177  0201              	db 2
 177  0202              	db 4
"File: Font.h        Assembler  Version HGASM0202      Page 36

 177  0202              	db 0
 177  0203              	db 0
 177  0203              	db 0
 177  0204              	db 0
 177  0204              	db 0
 177  0205              	db 0
 177  0205              	db 0
 177  0206              	db 0
 177  0206              	db 0
 177  0207              	db 0
 177  0207              	db 0
 177  0208              	db 0
 177  0208              	db 0
 177  0209              	db 0
 177  0209              	db -128
 177  020A              	db -128
 177  020A              	db -128
 177  020B              	db -128
 177  020B              	db 0
 177  020C              	db 0
 177  020C              	db 0
 177  020D              	db 25
 177  020D              	db 36
 177  020E              	db 34
 177  020E              	db 34
 177  020F              	db 34
 177  020F              	db 63
 177  0210              	db 32
 177  0210              	db 8
 177  0211              	db -8
 177  0211              	db 0
 177  0212              	db -128
 177  0212              	db -128
 177  0213              	db 0
 177  0213              	db 0
 177  0214              	db 0
 177  0214              	db 0
 177  0215              	db 63
 177  0215              	db 17
 177  0216              	db 32
 177  0216              	db 32
 177  0217              	db 17
 177  0217              	db 14
 177  0218              	db 0
 177  0218              	db 0
 177  0219              	db 0
 177  0219              	db 0
 177  021A              	db -128
 177  021A              	db -128
 177  021B              	db -128
 177  021B              	db 0
 177  021C              	db 0
 177  021C              	db 0
 177  021D              	db 14
 177  021D              	db 17
 177  021E              	db 32
 177  021E              	db 32
 177  021F              	db 32
 177  021F              	db 17
 177  0220              	db 0
"File: Font.h        Assembler  Version HGASM0202      Page 37

 177  0220              	db 0
 177  0221              	db 0
 177  0221              	db 0
 177  0222              	db -128
 177  0222              	db -128
 177  0223              	db -120
 177  0223              	db -8
 177  0224              	db 0
 177  0224              	db 0
 177  0225              	db 14
 177  0225              	db 17
 177  0226              	db 32
 177  0226              	db 32
 177  0227              	db 16
 177  0227              	db 63
 177  0228              	db 32
 177  0228              	db 0
 177  0229              	db 0
 177  0229              	db -128
 177  022A              	db -128
 177  022A              	db -128
 177  022B              	db -128
 177  022B              	db 0
 177  022C              	db 0
 177  022C              	db 0
 177  022D              	db 31
 177  022D              	db 34
 177  022E              	db 34
 177  022E              	db 34
 177  022F              	db 34
 177  022F              	db 19
 177  0230              	db 0
 177  0230              	db 0
 177  0231              	db -128
 177  0231              	db -128
 177  0232              	db -16
 177  0232              	db -120
 177  0233              	db -120
 177  0233              	db -120
 177  0234              	db 24
 177  0234              	db 0
 177  0235              	db 32
 177  0235              	db 32
 177  0236              	db 63
 177  0236              	db 32
 177  0237              	db 32
 177  0237              	db 0
 177  0238              	db 0
 177  0238              	db 0
 177  0239              	db 0
 177  0239              	db -128
 177  023A              	db -128
 177  023A              	db -128
 177  023B              	db -128
 177  023B              	db -128
 177  023C              	db 0
 177  023C              	db 0
 177  023D              	db 107
 177  023D              	db -108
 177  023E              	db -108
"File: Font.h        Assembler  Version HGASM0202      Page 38

 177  023E              	db -108
 177  023F              	db -109
 177  023F              	db 96
 177  0240              	db 0
 177  0240              	db 8
 177  0241              	db -8
 177  0241              	db 0
 177  0242              	db -128
 177  0242              	db -128
 177  0243              	db -128
 177  0243              	db 0
 177  0244              	db 0
 177  0244              	db 32
 177  0245              	db 63
 177  0245              	db 33
 177  0246              	db 0
 177  0246              	db 0
 177  0247              	db 32
 177  0247              	db 63
 177  0248              	db 32
 177  0248              	db 0
 177  0249              	db -128
 177  0249              	db -104
 177  024A              	db -104
 177  024A              	db 0
 177  024B              	db 0
 177  024B              	db 0
 177  024C              	db 0
 177  024C              	db 0
 177  024D              	db 32
 177  024D              	db 32
 177  024E              	db 63
 177  024E              	db 32
 177  024F              	db 32
 177  024F              	db 0
 177  0250              	db 0
 177  0250              	db 0
 177  0251              	db 0
 177  0251              	db 0
 177  0252              	db -128
 177  0252              	db -104
 177  0253              	db -104
 177  0253              	db 0
 177  0254              	db 0
 177  0254              	db 0
 177  0255              	db -64
 177  0255              	db -128
 177  0256              	db -128
 177  0256              	db -128
 177  0257              	db 127
 177  0257              	db 0
 177  0258              	db 0
 177  0258              	db 8
 177  0259              	db -8
 177  0259              	db 0
 177  025A              	db 0
 177  025A              	db -128
 177  025B              	db -128
 177  025B              	db -128
 177  025C              	db 0
"File: Font.h        Assembler  Version HGASM0202      Page 39

 177  025C              	db 32
 177  025D              	db 63
 177  025D              	db 36
 177  025E              	db 2
 177  025E              	db 45
 177  025F              	db 48
 177  025F              	db 32
 177  0260              	db 0
 177  0260              	db 0
 177  0261              	db 8
 177  0261              	db 8
 177  0262              	db -8
 177  0262              	db 0
 177  0263              	db 0
 177  0263              	db 0
 177  0264              	db 0
 177  0264              	db 0
 177  0265              	db 32
 177  0265              	db 32
 177  0266              	db 63
 177  0266              	db 32
 177  0267              	db 32
 177  0267              	db 0
 177  0268              	db 0
 177  0268              	db -128
 177  0269              	db -128
 177  0269              	db -128
 177  026A              	db -128
 177  026A              	db -128
 177  026B              	db -128
 177  026B              	db -128
 177  026C              	db 0
 177  026C              	db 32
 177  026D              	db 63
 177  026D              	db 32
 177  026E              	db 0
 177  026E              	db 63
 177  026F              	db 32
 177  026F              	db 0
 177  0270              	db 63
 177  0270              	db -128
 177  0271              	db -128
 177  0271              	db 0
 177  0272              	db -128
 177  0272              	db -128
 177  0273              	db -128
 177  0273              	db 0
 177  0274              	db 0
 177  0274              	db 32
 177  0275              	db 63
 177  0275              	db 33
 177  0276              	db 0
 177  0276              	db 0
 177  0277              	db 32
 177  0277              	db 63
 177  0278              	db 32
 177  0278              	db 0
 177  0279              	db 0
 177  0279              	db -128
 177  027A              	db -128
"File: Font.h        Assembler  Version HGASM0202      Page 40

 177  027A              	db -128
 177  027B              	db -128
 177  027B              	db 0
 177  027C              	db 0
 177  027C              	db 0
 177  027D              	db 31
 177  027D              	db 32
 177  027E              	db 32
 177  027E              	db 32
 177  027F              	db 32
 177  027F              	db 31
 177  0280              	db 0
 177  0280              	db -128
 177  0281              	db -128
 177  0281              	db 0
 177  0282              	db -128
 177  0282              	db -128
 177  0283              	db 0
 177  0283              	db 0
 177  0284              	db 0
 177  0284              	db -128
 177  0285              	db -1
 177  0285              	db -95
 177  0286              	db 32
 177  0286              	db 32
 177  0287              	db 17
 177  0287              	db 14
 177  0288              	db 0
 177  0288              	db 0
 177  0289              	db 0
 177  0289              	db 0
 177  028A              	db -128
 177  028A              	db -128
 177  028B              	db -128
 177  028B              	db -128
 177  028C              	db 0
 177  028C              	db 0
 177  028D              	db 14
 177  028D              	db 17
 177  028E              	db 32
 177  028E              	db 32
 177  028F              	db -96
 177  028F              	db -1
 177  0290              	db -128
 177  0290              	db -128
 177  0291              	db -128
 177  0291              	db -128
 177  0292              	db 0
 177  0292              	db -128
 177  0293              	db -128
 177  0293              	db -128
 177  0294              	db 0
 177  0294              	db 32
 177  0295              	db 32
 177  0295              	db 63
 177  0296              	db 33
 177  0296              	db 32
 177  0297              	db 0
 177  0297              	db 1
 177  0298              	db 0
"File: Font.h        Assembler  Version HGASM0202      Page 41

 177  0298              	db 0
 177  0299              	db 0
 177  0299              	db -128
 177  029A              	db -128
 177  029A              	db -128
 177  029B              	db -128
 177  029B              	db -128
 177  029C              	db 0
 177  029C              	db 0
 177  029D              	db 51
 177  029D              	db 36
 177  029E              	db 36
 177  029E              	db 36
 177  029F              	db 36
 177  029F              	db 25
 177  02A0              	db 0
 177  02A0              	db 0
 177  02A1              	db -128
 177  02A1              	db -128
 177  02A2              	db -32
 177  02A2              	db -128
 177  02A3              	db -128
 177  02A3              	db 0
 177  02A4              	db 0
 177  02A4              	db 0
 177  02A5              	db 0
 177  02A5              	db 0
 177  02A6              	db 31
 177  02A6              	db 32
 177  02A7              	db 32
 177  02A7              	db 0
 177  02A8              	db 0
 177  02A8              	db -128
 177  02A9              	db -128
 177  02A9              	db 0
 177  02AA              	db 0
 177  02AA              	db 0
 177  02AB              	db -128
 177  02AB              	db -128
 177  02AC              	db 0
 177  02AC              	db 0
 177  02AD              	db 31
 177  02AD              	db 32
 177  02AE              	db 32
 177  02AE              	db 32
 177  02AF              	db 16
 177  02AF              	db 63
 177  02B0              	db 32
 177  02B0              	db -128
 177  02B1              	db -128
 177  02B1              	db -128
 177  02B2              	db 0
 177  02B2              	db 0
 177  02B3              	db -128
 177  02B3              	db -128
 177  02B4              	db -128
 177  02B4              	db 0
 177  02B5              	db 1
 177  02B5              	db 14
 177  02B6              	db 48
"File: Font.h        Assembler  Version HGASM0202      Page 42

 177  02B6              	db 8
 177  02B7              	db 6
 177  02B7              	db 1
 177  02B8              	db 0
 177  02B8              	db -128
 177  02B9              	db -128
 177  02B9              	db 0
 177  02BA              	db -128
 177  02BA              	db 0
 177  02BB              	db -128
 177  02BB              	db -128
 177  02BC              	db -128
 177  02BC              	db 15
 177  02BD              	db 48
 177  02BD              	db 12
 177  02BE              	db 3
 177  02BE              	db 12
 177  02BF              	db 48
 177  02BF              	db 15
 177  02C0              	db 0
 177  02C0              	db 0
 177  02C1              	db -128
 177  02C1              	db -128
 177  02C2              	db 0
 177  02C2              	db -128
 177  02C3              	db -128
 177  02C3              	db -128
 177  02C4              	db 0
 177  02C4              	db 0
 177  02C5              	db 32
 177  02C5              	db 49
 177  02C6              	db 46
 177  02C6              	db 14
 177  02C7              	db 49
 177  02C7              	db 32
 177  02C8              	db 0
 177  02C8              	db -128
 177  02C9              	db -128
 177  02C9              	db -128
 177  02CA              	db 0
 177  02CA              	db 0
 177  02CB              	db -128
 177  02CB              	db -128
 177  02CC              	db -128
 177  02CC              	db -128
 177  02CD              	db -127
 177  02CD              	db -114
 177  02CE              	db 112
 177  02CE              	db 24
 177  02CF              	db 6
 177  02CF              	db 1
 177  02D0              	db 0
 177  02D0              	db 0
 177  02D1              	db -128
 177  02D1              	db -128
 177  02D2              	db -128
 177  02D2              	db -128
 177  02D3              	db -128
 177  02D3              	db -128
 177  02D4              	db 0
"File: Font.h        Assembler  Version HGASM0202      Page 43

 177  02D4              	db 0
 177  02D5              	db 33
 177  02D5              	db 48
 177  02D6              	db 44
 177  02D6              	db 34
 177  02D7              	db 33
 177  02D7              	db 48
 177  02D8              	db 0
 177  02D8              	db 0
 177  02D9              	db 0
 177  02D9              	db 0
 177  02DA              	db 0
 177  02DA              	db -128
 177  02DB              	db 124
 177  02DB              	db 2
 177  02DC              	db 2
 177  02DC              	db 0
 177  02DD              	db 0
 177  02DD              	db 0
 177  02DE              	db 0
 177  02DE              	db 0
 177  02DF              	db 63
 177  02DF              	db 64
 177  02E0              	db 64
 177  02E0              	db 0
 177  02E1              	db 0
 177  02E1              	db 0
 177  02E2              	db 0
 177  02E2              	db -1
 177  02E3              	db 0
 177  02E3              	db 0
 177  02E4              	db 0
 177  02E4              	db 0
 177  02E5              	db 0
 177  02E5              	db 0
 177  02E6              	db 0
 177  02E6              	db -1
 177  02E7              	db 0
 177  02E7              	db 0
 177  02E8              	db 0
 177  02E8              	db 0
 177  02E9              	db 2
 177  02E9              	db 2
 177  02EA              	db 124
 177  02EA              	db -128
 177  02EB              	db 0
 177  02EB              	db 0
 177  02EC              	db 0
 177  02EC              	db 0
 177  02ED              	db 64
 177  02ED              	db 64
 177  02EE              	db 63
 177  02EE              	db 0
 177  02EF              	db 0
 177  02EF              	db 0
 177  02F0              	db 0
 177  02F0              	db 0
 177  02F1              	db 6
 177  02F1              	db 1
 177  02F2              	db 1
"File: Font.h        Assembler  Version HGASM0202      Page 44

 177  02F2              	db 2
 177  02F3              	db 2
 177  02F3              	db 4
 177  02F4              	db 4
 177  02F4              	db 0
 177  02F5              	db 0
 177  02F5              	db 0
 177  02F6              	db 0
 177  02F6              	db 0
 177  02F7              	db 0
 177  02F7              	db 0
 177  02F8              	db 0
 177  02F8              public _FONT6X8
  78  02F8              #line 78 "c:\users\user\documents\htk_project\3652_adc_test_2\Font.h"
  78  02F8              @crom	.section	'crom'
  78  02F8              _FONT6X8:
  78  02F8              #pragma debug array 46 8 6 1
  78  02F8              #pragma debug array 46 8 6 1
  78  02F8              #pragma debug array 47 46 95 1
  78  02F8              #pragma debug array 47 46 95 1
  78  02F8              #pragma debug variable 47 1 _FONT6X8 "FONT6X8"
  78  02F8              	db 0
  78  02F9              	db 0
  78  02F9              	db 0
  78  02FA              	db 0
  78  02FA              	db 0
  78  02FB              	db 0
  78  02FB              	db 0
  78  02FC              	db 0
  78  02FC              	db 79
  78  02FD              	db 0
  78  02FD              	db 0
  78  02FE              	db 0
  78  02FE              	db 0
  78  02FF              	db 7
  78  02FF              	db 0
  78  0300              	db 7
  78  0300              	db 0
  78  0301              	db 0
  78  0301              	db 20
  78  0302              	db 127
  78  0302              	db 20
  78  0303              	db 127
  78  0303              	db 20
  78  0304              	db 0
  78  0304              	db 36
  78  0305              	db 42
  78  0305              	db 127
  78  0306              	db 42
  78  0306              	db 18
  78  0307              	db 0
  78  0307              	db 35
  78  0308              	db 19
  78  0308              	db 8
  78  0309              	db 100
  78  0309              	db 98
  78  030A              	db 0
  78  030A              	db 54
  78  030B              	db 73
  78  030B              	db 85
"File: Font.h        Assembler  Version HGASM0202      Page 45

  78  030C              	db 34
  78  030C              	db 80
  78  030D              	db 0
  78  030D              	db 0
  78  030E              	db 5
  78  030E              	db 7
  78  030F              	db 0
  78  030F              	db 0
  78  0310              	db 0
  78  0310              	db 0
  78  0311              	db 28
  78  0311              	db 34
  78  0312              	db 65
  78  0312              	db 0
  78  0313              	db 0
  78  0313              	db 0
  78  0314              	db 65
  78  0314              	db 34
  78  0315              	db 28
  78  0315              	db 0
  78  0316              	db 0
  78  0316              	db 20
  78  0317              	db 8
  78  0317              	db 62
  78  0318              	db 8
  78  0318              	db 20
  78  0319              	db 0
  78  0319              	db 8
  78  031A              	db 8
  78  031A              	db 62
  78  031B              	db 8
  78  031B              	db 8
  78  031C              	db 0
  78  031C              	db 0
  78  031D              	db 80
  78  031D              	db 48
  78  031E              	db 0
  78  031E              	db 0
  78  031F              	db 0
  78  031F              	db 8
  78  0320              	db 8
  78  0320              	db 8
  78  0321              	db 8
  78  0321              	db 8
  78  0322              	db 0
  78  0322              	db 0
  78  0323              	db 96
  78  0323              	db 96
  78  0324              	db 0
  78  0324              	db 0
  78  0325              	db 0
  78  0325              	db 32
  78  0326              	db 16
  78  0326              	db 8
  78  0327              	db 4
  78  0327              	db 2
  78  0328              	db 0
  78  0328              	db 62
  78  0329              	db 81
  78  0329              	db 73
"File: Font.h        Assembler  Version HGASM0202      Page 46

  78  032A              	db 69
  78  032A              	db 62
  78  032B              	db 0
  78  032B              	db 0
  78  032C              	db 66
  78  032C              	db 127
  78  032D              	db 64
  78  032D              	db 0
  78  032E              	db 0
  78  032E              	db 66
  78  032F              	db 97
  78  032F              	db 81
  78  0330              	db 73
  78  0330              	db 70
  78  0331              	db 0
  78  0331              	db 33
  78  0332              	db 65
  78  0332              	db 69
  78  0333              	db 75
  78  0333              	db 49
  78  0334              	db 0
  78  0334              	db 24
  78  0335              	db 20
  78  0335              	db 18
  78  0336              	db 127
  78  0336              	db 16
  78  0337              	db 0
  78  0337              	db 39
  78  0338              	db 69
  78  0338              	db 69
  78  0339              	db 69
  78  0339              	db 57
  78  033A              	db 0
  78  033A              	db 60
  78  033B              	db 74
  78  033B              	db 73
  78  033C              	db 73
  78  033C              	db 48
  78  033D              	db 0
  78  033D              	db 1
  78  033E              	db 113
  78  033E              	db 9
  78  033F              	db 5
  78  033F              	db 3
  78  0340              	db 0
  78  0340              	db 54
  78  0341              	db 73
  78  0341              	db 73
  78  0342              	db 73
  78  0342              	db 54
  78  0343              	db 0
  78  0343              	db 6
  78  0344              	db 73
  78  0344              	db 73
  78  0345              	db 41
  78  0345              	db 30
  78  0346              	db 0
  78  0346              	db 0
  78  0347              	db 54
  78  0347              	db 54
"File: Font.h        Assembler  Version HGASM0202      Page 47

  78  0348              	db 0
  78  0348              	db 0
  78  0349              	db 0
  78  0349              	db 0
  78  034A              	db 86
  78  034A              	db 54
  78  034B              	db 0
  78  034B              	db 0
  78  034C              	db 0
  78  034C              	db 8
  78  034D              	db 20
  78  034D              	db 34
  78  034E              	db 65
  78  034E              	db 0
  78  034F              	db 0
  78  034F              	db 20
  78  0350              	db 20
  78  0350              	db 20
  78  0351              	db 20
  78  0351              	db 20
  78  0352              	db 0
  78  0352              	db 0
  78  0353              	db 65
  78  0353              	db 34
  78  0354              	db 20
  78  0354              	db 8
  78  0355              	db 0
  78  0355              	db 2
  78  0356              	db 1
  78  0356              	db 81
  78  0357              	db 9
  78  0357              	db 6
  78  0358              	db 0
  78  0358              	db 50
  78  0359              	db 73
  78  0359              	db 121
  78  035A              	db 65
  78  035A              	db 62
  78  035B              	db 0
  78  035B              	db 126
  78  035C              	db 17
  78  035C              	db 17
  78  035D              	db 17
  78  035D              	db 126
  78  035E              	db 0
  78  035E              	db 127
  78  035F              	db 73
  78  035F              	db 73
  78  0360              	db 73
  78  0360              	db 54
  78  0361              	db 0
  78  0361              	db 62
  78  0362              	db 65
  78  0362              	db 65
  78  0363              	db 65
  78  0363              	db 34
  78  0364              	db 0
  78  0364              	db 127
  78  0365              	db 65
  78  0365              	db 65
"File: Font.h        Assembler  Version HGASM0202      Page 48

  78  0366              	db 34
  78  0366              	db 28
  78  0367              	db 0
  78  0367              	db 127
  78  0368              	db 73
  78  0368              	db 73
  78  0369              	db 73
  78  0369              	db 65
  78  036A              	db 0
  78  036A              	db 127
  78  036B              	db 9
  78  036B              	db 9
  78  036C              	db 9
  78  036C              	db 1
  78  036D              	db 0
  78  036D              	db 62
  78  036E              	db 65
  78  036E              	db 73
  78  036F              	db 73
  78  036F              	db 122
  78  0370              	db 0
  78  0370              	db 127
  78  0371              	db 8
  78  0371              	db 8
  78  0372              	db 8
  78  0372              	db 127
  78  0373              	db 0
  78  0373              	db 0
  78  0374              	db 65
  78  0374              	db 127
  78  0375              	db 65
  78  0375              	db 0
  78  0376              	db 0
  78  0376              	db 32
  78  0377              	db 64
  78  0377              	db 65
  78  0378              	db 63
  78  0378              	db 1
  78  0379              	db 0
  78  0379              	db 127
  78  037A              	db 8
  78  037A              	db 20
  78  037B              	db 34
  78  037B              	db 65
  78  037C              	db 0
  78  037C              	db 127
  78  037D              	db 64
  78  037D              	db 64
  78  037E              	db 64
  78  037E              	db 64
  78  037F              	db 0
  78  037F              	db 127
  78  0380              	db 2
  78  0380              	db 12
  78  0381              	db 2
  78  0381              	db 127
  78  0382              	db 0
  78  0382              	db 127
  78  0383              	db 4
  78  0383              	db 8
"File: Font.h        Assembler  Version HGASM0202      Page 49

  78  0384              	db 16
  78  0384              	db 127
  78  0385              	db 0
  78  0385              	db 62
  78  0386              	db 65
  78  0386              	db 65
  78  0387              	db 65
  78  0387              	db 62
  78  0388              	db 0
  78  0388              	db 127
  78  0389              	db 9
  78  0389              	db 9
  78  038A              	db 9
  78  038A              	db 6
  78  038B              	db 0
  78  038B              	db 62
  78  038C              	db 65
  78  038C              	db 81
  78  038D              	db 33
  78  038D              	db 94
  78  038E              	db 0
  78  038E              	db 127
  78  038F              	db 9
  78  038F              	db 25
  78  0390              	db 41
  78  0390              	db 70
  78  0391              	db 0
  78  0391              	db 70
  78  0392              	db 73
  78  0392              	db 73
  78  0393              	db 73
  78  0393              	db 49
  78  0394              	db 0
  78  0394              	db 1
  78  0395              	db 1
  78  0395              	db 127
  78  0396              	db 1
  78  0396              	db 1
  78  0397              	db 0
  78  0397              	db 63
  78  0398              	db 64
  78  0398              	db 64
  78  0399              	db 64
  78  0399              	db 63
  78  039A              	db 0
  78  039A              	db 31
  78  039B              	db 32
  78  039B              	db 64
  78  039C              	db 32
  78  039C              	db 31
  78  039D              	db 0
  78  039D              	db 63
  78  039E              	db 64
  78  039E              	db 56
  78  039F              	db 64
  78  039F              	db 63
  78  03A0              	db 0
  78  03A0              	db 99
  78  03A1              	db 20
  78  03A1              	db 8
"File: Font.h        Assembler  Version HGASM0202      Page 50

  78  03A2              	db 20
  78  03A2              	db 99
  78  03A3              	db 0
  78  03A3              	db 7
  78  03A4              	db 8
  78  03A4              	db 112
  78  03A5              	db 8
  78  03A5              	db 7
  78  03A6              	db 0
  78  03A6              	db 97
  78  03A7              	db 81
  78  03A7              	db 73
  78  03A8              	db 69
  78  03A8              	db 67
  78  03A9              	db 0
  78  03A9              	db 0
  78  03AA              	db 127
  78  03AA              	db 65
  78  03AB              	db 65
  78  03AB              	db 0
  78  03AC              	db 0
  78  03AC              	db 2
  78  03AD              	db 4
  78  03AD              	db 8
  78  03AE              	db 16
  78  03AE              	db 32
  78  03AF              	db 0
  78  03AF              	db 0
  78  03B0              	db 65
  78  03B0              	db 65
  78  03B1              	db 127
  78  03B1              	db 0
  78  03B2              	db 0
  78  03B2              	db 4
  78  03B3              	db 2
  78  03B3              	db 1
  78  03B4              	db 2
  78  03B4              	db 4
  78  03B5              	db 0
  78  03B5              	db 64
  78  03B6              	db 64
  78  03B6              	db 64
  78  03B7              	db 64
  78  03B7              	db 64
  78  03B8              	db 0
  78  03B8              	db 1
  78  03B9              	db 2
  78  03B9              	db 4
  78  03BA              	db 0
  78  03BA              	db 0
  78  03BB              	db 0
  78  03BB              	db 32
  78  03BC              	db 84
  78  03BC              	db 84
  78  03BD              	db 84
  78  03BD              	db 120
  78  03BE              	db 0
  78  03BE              	db 127
  78  03BF              	db 72
  78  03BF              	db 72
"File: Font.h        Assembler  Version HGASM0202      Page 51

  78  03C0              	db 72
  78  03C0              	db 48
  78  03C1              	db 0
  78  03C1              	db 56
  78  03C2              	db 68
  78  03C2              	db 68
  78  03C3              	db 68
  78  03C3              	db 68
  78  03C4              	db 0
  78  03C4              	db 48
  78  03C5              	db 72
  78  03C5              	db 72
  78  03C6              	db 72
  78  03C6              	db 127
  78  03C7              	db 0
  78  03C7              	db 56
  78  03C8              	db 84
  78  03C8              	db 84
  78  03C9              	db 84
  78  03C9              	db 88
  78  03CA              	db 0
  78  03CA              	db 0
  78  03CB              	db 8
  78  03CB              	db 126
  78  03CC              	db 9
  78  03CC              	db 2
  78  03CD              	db 0
  78  03CD              	db 72
  78  03CE              	db 84
  78  03CE              	db 84
  78  03CF              	db 84
  78  03CF              	db 60
  78  03D0              	db 0
  78  03D0              	db 127
  78  03D1              	db 8
  78  03D1              	db 8
  78  03D2              	db 8
  78  03D2              	db 112
  78  03D3              	db 0
  78  03D3              	db 0
  78  03D4              	db 0
  78  03D4              	db 122
  78  03D5              	db 0
  78  03D5              	db 0
  78  03D6              	db 0
  78  03D6              	db 32
  78  03D7              	db 64
  78  03D7              	db 64
  78  03D8              	db 61
  78  03D8              	db 0
  78  03D9              	db 0
  78  03D9              	db 127
  78  03DA              	db 32
  78  03DA              	db 40
  78  03DB              	db 68
  78  03DB              	db 0
  78  03DC              	db 0
  78  03DC              	db 0
  78  03DD              	db 65
  78  03DD              	db 127
"File: Font.h        Assembler  Version HGASM0202      Page 52

  78  03DE              	db 64
  78  03DE              	db 0
  78  03DF              	db 0
  78  03DF              	db 124
  78  03E0              	db 4
  78  03E0              	db 56
  78  03E1              	db 4
  78  03E1              	db 124
  78  03E2              	db 0
  78  03E2              	db 124
  78  03E3              	db 8
  78  03E3              	db 4
  78  03E4              	db 4
  78  03E4              	db 120
  78  03E5              	db 0
  78  03E5              	db 56
  78  03E6              	db 68
  78  03E6              	db 68
  78  03E7              	db 68
  78  03E7              	db 56
  78  03E8              	db 0
  78  03E8              	db 124
  78  03E9              	db 20
  78  03E9              	db 20
  78  03EA              	db 20
  78  03EA              	db 8
  78  03EB              	db 0
  78  03EB              	db 8
  78  03EC              	db 20
  78  03EC              	db 20
  78  03ED              	db 20
  78  03ED              	db 124
  78  03EE              	db 0
  78  03EE              	db 124
  78  03EF              	db 8
  78  03EF              	db 4
  78  03F0              	db 4
  78  03F0              	db 8
  78  03F1              	db 0
  78  03F1              	db 72
  78  03F2              	db 84
  78  03F2              	db 84
  78  03F3              	db 84
  78  03F3              	db 36
  78  03F4              	db 0
  78  03F4              	db 4
  78  03F5              	db 4
  78  03F5              	db 63
  78  03F6              	db 68
  78  03F6              	db 36
  78  03F7              	db 0
  78  03F7              	db 60
  78  03F8              	db 64
  78  03F8              	db 64
  78  03F9              	db 64
  78  03F9              	db 60
  78  03FA              	db 0
  78  03FA              	db 28
  78  03FB              	db 32
  78  03FB              	db 64
"File: Font.h        Assembler  Version HGASM0202      Page 53

  78  03FC              	db 32
  78  03FC              	db 28
  78  03FD              	db 0
  78  03FD              	db 60
  78  03FE              	db 64
  78  03FE              	db 48
  78  03FF              	db 64
  78  03FF              	db 60
  78  0400              	db 0
  78  0400              	db 68
  78  0401              	db 40
  78  0401              	db 16
  78  0402              	db 40
  78  0402              	db 68
  78  0403              	db 0
  78  0403              	db 4
  78  0404              	db 72
  78  0404              	db 48
  78  0405              	db 8
  78  0405              	db 4
  78  0406              	db 0
  78  0406              	db 68
  78  0407              	db 100
  78  0407              	db 84
  78  0408              	db 76
  78  0408              	db 68
  78  0409              	db 0
  78  0409              	db 8
  78  040A              	db 54
  78  040A              	db 65
  78  040B              	db 65
  78  040B              	db 0
  78  040C              	db 0
  78  040C              	db 0
  78  040D              	db 0
  78  040D              	db 119
  78  040E              	db 0
  78  040E              	db 0
  78  040F              	db 0
  78  040F              	db 0
  78  0410              	db 65
  78  0410              	db 65
  78  0411              	db 54
  78  0411              	db 8
  78  0412              	db 0
  78  0412              	db 4
  78  0413              	db 2
  78  0413              	db 2
  78  0414              	db 2
  78  0414              	db 1
  78  0415              	db 0
  78  0415              public _BestComm_Logo
   2  0415              #line 2 "c:\users\user\documents\htk_project\3652_adc_test_2\Font.h"
   2  0415              @crom	.section	'crom'
   2  0415              _BestComm_Logo:
   2  0415              #pragma debug array 48 8 1024 1
   2  0415              #pragma debug array 48 8 1024 1
   2  0415              #pragma debug variable 48 1 _BestComm_Logo "BestComm_Logo"
   2  0415              	db 0
   2  0416              	db 0
"File: Font.h        Assembler  Version HGASM0202      Page 54

   2  0416              	db 0
   2  0417              	db 0
   2  0417              	db 0
   2  0418              	db 0
   2  0418              	db 0
   2  0419              	db 0
   2  0419              	db 0
   2  041A              	db 0
   2  041A              	db 0
   2  041B              	db -128
   2  041B              	db -64
   2  041C              	db -64
   2  041C              	db -32
   2  041D              	db -32
   2  041D              	db -16
   2  041E              	db -16
   2  041E              	db -8
   2  041F              	db -8
   2  041F              	db -4
   2  0420              	db -4
   2  0420              	db -4
   2  0421              	db -4
   2  0421              	db -2
   2  0422              	db -2
   2  0422              	db -2
   2  0423              	db -2
   2  0423              	db -2
   2  0424              	db -2
   2  0424              	db -1
   2  0425              	db -1
   2  0425              	db -1
   2  0426              	db -1
   2  0426              	db -1
   2  0427              	db -1
   2  0427              	db -1
   2  0428              	db -1
   2  0428              	db -1
   2  0429              	db -1
   2  0429              	db -1
   2  042A              	db -2
   2  042A              	db -2
   2  042B              	db -2
   2  042B              	db -2
   2  042C              	db -2
   2  042C              	db -2
   2  042D              	db -4
   2  042D              	db -4
   2  042E              	db -4
   2  042E              	db -4
   2  042F              	db -8
   2  042F              	db -8
   2  0430              	db -16
   2  0430              	db -16
   2  0431              	db -32
   2  0431              	db -32
   2  0432              	db -64
   2  0432              	db -64
   2  0433              	db -128
   2  0433              	db 0
   2  0434              	db 0
"File: Font.h        Assembler  Version HGASM0202      Page 55

   2  0434              	db 0
   2  0435              	db 0
   2  0435              	db 0
   2  0436              	db 0
   2  0436              	db 0
   2  0437              	db 0
   2  0437              	db 0
   2  0438              	db 0
   2  0438              	db 0
   2  0439              	db 0
   2  0439              	db 0
   2  043A              	db 0
   2  043A              	db 0
   2  043B              	db 0
   2  043B              	db 0
   2  043C              	db 0
   2  043C              	db 0
   2  043D              	db 0
   2  043D              	db 0
   2  043E              	db 0
   2  043E              	db 0
   2  043F              	db 0
   2  043F              	db 0
   2  0440              	db 0
   2  0440              	db 0
   2  0441              	db 0
   2  0441              	db 0
   2  0442              	db 0
   2  0442              	db 0
   2  0443              	db 0
   2  0443              	db 0
   2  0444              	db 0
   2  0444              	db 0
   2  0445              	db 0
   2  0445              	db 0
   2  0446              	db 0
   2  0446              	db 0
   2  0447              	db 0
   2  0447              	db 0
   2  0448              	db 0
   2  0448              	db 0
   2  0449              	db 0
   2  0449              	db 0
   2  044A              	db 0
   2  044A              	db 0
   2  044B              	db 0
   2  044B              	db 0
   2  044C              	db 0
   2  044C              	db 0
   2  044D              	db 0
   2  044D              	db 0
   2  044E              	db 0
   2  044E              	db 0
   2  044F              	db 0
   2  044F              	db 0
   2  0450              	db 0
   2  0450              	db 0
   2  0451              	db 0
   2  0451              	db 0
   2  0452              	db 0
"File: Font.h        Assembler  Version HGASM0202      Page 56

   2  0452              	db 0
   2  0453              	db 0
   2  0453              	db 0
   2  0454              	db 0
   2  0454              	db 0
   2  0455              	db 0
   2  0455              	db 0
   2  0456              	db 0
   2  0456              	db 0
   2  0457              	db -128
   2  0457              	db -64
   2  0458              	db -32
   2  0458              	db -16
   2  0459              	db -8
   2  0459              	db -4
   2  045A              	db -2
   2  045A              	db -1
   2  045B              	db -1
   2  045B              	db -1
   2  045C              	db -1
   2  045C              	db -1
   2  045D              	db -1
   2  045D              	db -1
   2  045E              	db -1
   2  045E              	db -1
   2  045F              	db -1
   2  045F              	db -1
   2  0460              	db -1
   2  0460              	db -1
   2  0461              	db -1
   2  0461              	db -1
   2  0462              	db -1
   2  0462              	db -1
   2  0463              	db -1
   2  0463              	db -1
   2  0464              	db -1
   2  0464              	db -1
   2  0465              	db -1
   2  0465              	db -1
   2  0466              	db -1
   2  0466              	db -1
   2  0467              	db -1
   2  0467              	db -1
   2  0468              	db -1
   2  0468              	db -1
   2  0469              	db -1
   2  0469              	db -1
   2  046A              	db -1
   2  046A              	db -1
   2  046B              	db -1
   2  046B              	db -1
   2  046C              	db -1
   2  046C              	db -1
   2  046D              	db -1
   2  046D              	db -1
   2  046E              	db -1
   2  046E              	db -1
   2  046F              	db -1
   2  046F              	db -1
   2  0470              	db -1
"File: Font.h        Assembler  Version HGASM0202      Page 57

   2  0470              	db -1
   2  0471              	db -1
   2  0471              	db -1
   2  0472              	db -1
   2  0472              	db -1
   2  0473              	db -1
   2  0473              	db -1
   2  0474              	db -2
   2  0474              	db -4
   2  0475              	db -8
   2  0475              	db -16
   2  0476              	db -32
   2  0476              	db -64
   2  0477              	db -128
   2  0477              	db 0
   2  0478              	db 0
   2  0478              	db 0
   2  0479              	db 0
   2  0479              	db 0
   2  047A              	db 0
   2  047A              	db 0
   2  047B              	db 0
   2  047B              	db 0
   2  047C              	db 0
   2  047C              	db 0
   2  047D              	db 0
   2  047D              	db 0
   2  047E              	db 0
   2  047E              	db 0
   2  047F              	db 0
   2  047F              	db 0
   2  0480              	db 0
   2  0480              	db 0
   2  0481              	db 0
   2  0481              	db 0
   2  0482              	db 0
   2  0482              	db 0
   2  0483              	db 0
   2  0483              	db 0
   2  0484              	db 0
   2  0484              	db 0
   2  0485              	db 0
   2  0485              	db 0
   2  0486              	db 0
   2  0486              	db 0
   2  0487              	db 0
   2  0487              	db 0
   2  0488              	db 0
   2  0488              	db 0
   2  0489              	db 0
   2  0489              	db 0
   2  048A              	db 0
   2  048A              	db 0
   2  048B              	db 0
   2  048B              	db 0
   2  048C              	db 0
   2  048C              	db 0
   2  048D              	db 0
   2  048D              	db 0
   2  048E              	db 0
"File: Font.h        Assembler  Version HGASM0202      Page 58

   2  048E              	db 0
   2  048F              	db 0
   2  048F              	db 0
   2  0490              	db 0
   2  0490              	db 0
   2  0491              	db 0
   2  0491              	db 0
   2  0492              	db 0
   2  0492              	db 0
   2  0493              	db 0
   2  0493              	db 0
   2  0494              	db 0
   2  0494              	db 0
   2  0495              	db 0
   2  0495              	db -64
   2  0496              	db -8
   2  0496              	db -2
   2  0497              	db -1
   2  0497              	db -1
   2  0498              	db -1
   2  0498              	db -1
   2  0499              	db -1
   2  0499              	db -1
   2  049A              	db -1
   2  049A              	db -1
   2  049B              	db -1
   2  049B              	db -1
   2  049C              	db -1
   2  049C              	db -1
   2  049D              	db -1
   2  049D              	db -1
   2  049E              	db 0
   2  049E              	db 0
   2  049F              	db 0
   2  049F              	db 0
   2  04A0              	db 56
   2  04A0              	db 56
   2  04A1              	db 56
   2  04A1              	db 56
   2  04A2              	db 56
   2  04A2              	db 56
   2  04A3              	db 56
   2  04A3              	db 56
   2  04A4              	db 56
   2  04A4              	db 24
   2  04A5              	db 64
   2  04A5              	db -31
   2  04A6              	db -5
   2  04A6              	db -1
   2  04A7              	db -1
   2  04A7              	db -1
   2  04A8              	db -1
   2  04A8              	db 1
   2  04A9              	db 0
   2  04A9              	db 0
   2  04AA              	db 0
   2  04AA              	db -8
   2  04AB              	db -8
   2  04AB              	db -8
   2  04AC              	db -8
"File: Font.h        Assembler  Version HGASM0202      Page 59

   2  04AC              	db -8
   2  04AD              	db -8
   2  04AD              	db -8
   2  04AE              	db -8
   2  04AE              	db -8
   2  04AF              	db -8
   2  04AF              	db -8
   2  04B0              	db -8
   2  04B0              	db -1
   2  04B1              	db -1
   2  04B1              	db -1
   2  04B2              	db -1
   2  04B2              	db -1
   2  04B3              	db -1
   2  04B3              	db -1
   2  04B4              	db -1
   2  04B4              	db -1
   2  04B5              	db -1
   2  04B5              	db -1
   2  04B6              	db -1
   2  04B6              	db -1
   2  04B7              	db -1
   2  04B7              	db -2
   2  04B8              	db -8
   2  04B8              	db -64
   2  04B9              	db 0
   2  04B9              	db 0
   2  04BA              	db 0
   2  04BA              	db 0
   2  04BB              	db 0
   2  04BB              	db 0
   2  04BC              	db 0
   2  04BC              	db 0
   2  04BD              	db 0
   2  04BD              	db 0
   2  04BE              	db 0
   2  04BE              	db 0
   2  04BF              	db 0
   2  04BF              	db 0
   2  04C0              	db 0
   2  04C0              	db 0
   2  04C1              	db 0
   2  04C1              	db 0
   2  04C2              	db 0
   2  04C2              	db 0
   2  04C3              	db 0
   2  04C3              	db 0
   2  04C4              	db 0
   2  04C4              	db 0
   2  04C5              	db 0
   2  04C5              	db 0
   2  04C6              	db 0
   2  04C6              	db 0
   2  04C7              	db 0
   2  04C7              	db 0
   2  04C8              	db 0
   2  04C8              	db 0
   2  04C9              	db 0
   2  04C9              	db 0
   2  04CA              	db 0
"File: Font.h        Assembler  Version HGASM0202      Page 60

   2  04CA              	db 0
   2  04CB              	db 0
   2  04CB              	db 0
   2  04CC              	db 0
   2  04CC              	db 0
   2  04CD              	db 0
   2  04CD              	db 0
   2  04CE              	db 0
   2  04CE              	db 0
   2  04CF              	db 0
   2  04CF              	db 0
   2  04D0              	db 0
   2  04D0              	db 0
   2  04D1              	db 0
   2  04D1              	db 0
   2  04D2              	db 0
   2  04D2              	db 0
   2  04D3              	db 0
   2  04D3              	db 0
   2  04D4              	db 0
   2  04D4              	db 0
   2  04D5              	db 0
   2  04D5              	db 127
   2  04D6              	db -1
   2  04D6              	db -1
   2  04D7              	db -1
   2  04D7              	db -1
   2  04D8              	db -1
   2  04D8              	db -1
   2  04D9              	db -1
   2  04D9              	db -1
   2  04DA              	db -1
   2  04DA              	db -1
   2  04DB              	db -1
   2  04DB              	db -1
   2  04DC              	db -1
   2  04DC              	db -1
   2  04DD              	db -1
   2  04DD              	db -1
   2  04DE              	db -128
   2  04DE              	db -128
   2  04DF              	db -128
   2  04DF              	db -128
   2  04E0              	db -121
   2  04E0              	db -113
   2  04E1              	db -113
   2  04E1              	db -113
   2  04E2              	db -113
   2  04E2              	db -113
   2  04E3              	db -113
   2  04E3              	db -113
   2  04E4              	db -121
   2  04E4              	db -61
   2  04E5              	db -64
   2  04E5              	db -32
   2  04E6              	db -32
   2  04E6              	db -15
   2  04E7              	db -1
   2  04E7              	db -1
   2  04E8              	db -1
"File: Font.h        Assembler  Version HGASM0202      Page 61

   2  04E8              	db -16
   2  04E9              	db -32
   2  04E9              	db -64
   2  04EA              	db -128
   2  04EA              	db -121
   2  04EB              	db -121
   2  04EB              	db -113
   2  04EC              	db -113
   2  04EC              	db -113
   2  04ED              	db -113
   2  04ED              	db -113
   2  04EE              	db -113
   2  04EE              	db -113
   2  04EF              	db -113
   2  04EF              	db -113
   2  04F0              	db -113
   2  04F0              	db -1
   2  04F1              	db -1
   2  04F1              	db -1
   2  04F2              	db -1
   2  04F2              	db -1
   2  04F3              	db -1
   2  04F3              	db -1
   2  04F4              	db -1
   2  04F4              	db -1
   2  04F5              	db -1
   2  04F5              	db -1
   2  04F6              	db -1
   2  04F6              	db -1
   2  04F7              	db -1
   2  04F7              	db -1
   2  04F8              	db -1
   2  04F8              	db 127
   2  04F9              	db 0
   2  04F9              	db 0
   2  04FA              	db 0
   2  04FA              	db 0
   2  04FB              	db 0
   2  04FB              	db 0
   2  04FC              	db 0
   2  04FC              	db 0
   2  04FD              	db 0
   2  04FD              	db 0
   2  04FE              	db 0
   2  04FE              	db 0
   2  04FF              	db 0
   2  04FF              	db 0
   2  0500              	db 0
   2  0500              	db 0
   2  0501              	db 0
   2  0501              	db 0
   2  0502              	db 0
   2  0502              	db 0
   2  0503              	db 0
   2  0503              	db 0
   2  0504              	db 0
   2  0504              	db 0
   2  0505              	db 0
   2  0505              	db 0
   2  0506              	db 0
"File: Font.h        Assembler  Version HGASM0202      Page 62

   2  0506              	db 0
   2  0507              	db 0
   2  0507              	db 0
   2  0508              	db 0
   2  0508              	db 0
   2  0509              	db 0
   2  0509              	db 0
   2  050A              	db 0
   2  050A              	db 0
   2  050B              	db 0
   2  050B              	db 0
   2  050C              	db 0
   2  050C              	db 0
   2  050D              	db 0
   2  050D              	db 0
   2  050E              	db 0
   2  050E              	db 0
   2  050F              	db 0
   2  050F              	db 0
   2  0510              	db 0
   2  0510              	db 0
   2  0511              	db 0
   2  0511              	db 0
   2  0512              	db 0
   2  0512              	db 0
   2  0513              	db 0
   2  0513              	db 0
   2  0514              	db 0
   2  0514              	db 0
   2  0515              	db 0
   2  0515              	db 0
   2  0516              	db 1
   2  0516              	db 15
   2  0517              	db 63
   2  0517              	db 127
   2  0518              	db -1
   2  0518              	db -1
   2  0519              	db -1
   2  0519              	db -1
   2  051A              	db -1
   2  051A              	db -1
   2  051B              	db -1
   2  051B              	db -1
   2  051C              	db -1
   2  051C              	db -1
   2  051D              	db -1
   2  051D              	db -1
   2  051E              	db -1
   2  051E              	db -1
   2  051F              	db -1
   2  051F              	db -1
   2  0520              	db -1
   2  0520              	db -1
   2  0521              	db -1
   2  0521              	db -1
   2  0522              	db -1
   2  0522              	db -1
   2  0523              	db 127
   2  0523              	db 63
   2  0524              	db 63
"File: Font.h        Assembler  Version HGASM0202      Page 63

   2  0524              	db 63
   2  0525              	db -65
   2  0525              	db -65
   2  0526              	db -65
   2  0526              	db -65
   2  0527              	db -65
   2  0527              	db -97
   2  0528              	db -97
   2  0528              	db -97
   2  0529              	db -97
   2  0529              	db -97
   2  052A              	db -113
   2  052A              	db -113
   2  052B              	db -113
   2  052B              	db -113
   2  052C              	db -113
   2  052C              	db -113
   2  052D              	db 15
   2  052D              	db 15
   2  052E              	db 15
   2  052E              	db 15
   2  052F              	db 15
   2  052F              	db 15
   2  0530              	db 15
   2  0530              	db 15
   2  0531              	db 15
   2  0531              	db 31
   2  0532              	db 31
   2  0532              	db 31
   2  0533              	db 31
   2  0533              	db 63
   2  0534              	db 63
   2  0534              	db 63
   2  0535              	db 63
   2  0535              	db 63
   2  0536              	db 63
   2  0536              	db 63
   2  0537              	db 63
   2  0537              	db 15
   2  0538              	db 1
   2  0538              	db 0
   2  0539              	db 0
   2  0539              	db 0
   2  053A              	db 0
   2  053A              	db 0
   2  053B              	db 0
   2  053B              	db 0
   2  053C              	db 0
   2  053C              	db 0
   2  053D              	db 0
   2  053D              	db 0
   2  053E              	db 0
   2  053E              	db 0
   2  053F              	db 0
   2  053F              	db 0
   2  0540              	db 0
   2  0540              	db 0
   2  0541              	db 0
   2  0541              	db 0
   2  0542              	db 0
"File: Font.h        Assembler  Version HGASM0202      Page 64

   2  0542              	db 0
   2  0543              	db 0
   2  0543              	db 0
   2  0544              	db 0
   2  0544              	db 0
   2  0545              	db 0
   2  0545              	db 0
   2  0546              	db 0
   2  0546              	db 0
   2  0547              	db 0
   2  0547              	db 0
   2  0548              	db 0
   2  0548              	db 0
   2  0549              	db 0
   2  0549              	db 0
   2  054A              	db 0
   2  054A              	db 0
   2  054B              	db 0
   2  054B              	db 0
   2  054C              	db 0
   2  054C              	db 0
   2  054D              	db 0
   2  054D              	db 0
   2  054E              	db 0
   2  054E              	db 0
   2  054F              	db 0
   2  054F              	db 0
   2  0550              	db 0
   2  0550              	db 0
   2  0551              	db 0
   2  0551              	db 0
   2  0552              	db 0
   2  0552              	db 0
   2  0553              	db 0
   2  0553              	db 0
   2  0554              	db 0
   2  0554              	db 0
   2  0555              	db 0
   2  0555              	db 0
   2  0556              	db 0
   2  0556              	db 0
   2  0557              	db 0
   2  0557              	db 0
   2  0558              	db 0
   2  0558              	db 1
   2  0559              	db 3
   2  0559              	db 7
   2  055A              	db 15
   2  055A              	db 31
   2  055B              	db 63
   2  055B              	db 63
   2  055C              	db 127
   2  055C              	db 127
   2  055D              	db -1
   2  055D              	db -1
   2  055E              	db -1
   2  055E              	db -1
   2  055F              	db -1
   2  055F              	db -1
   2  0560              	db -1
"File: Font.h        Assembler  Version HGASM0202      Page 65

   2  0560              	db -1
   2  0561              	db -2
   2  0561              	db -2
   2  0562              	db -2
   2  0562              	db -1
   2  0563              	db -1
   2  0563              	db -1
   2  0564              	db -1
   2  0564              	db -1
   2  0565              	db -1
   2  0565              	db -5
   2  0566              	db -5
   2  0566              	db -5
   2  0567              	db -69
   2  0567              	db -69
   2  0568              	db 59
   2  0568              	db 59
   2  0569              	db 59
   2  0569              	db 59
   2  056A              	db 59
   2  056A              	db 123
   2  056B              	db 115
   2  056B              	db -9
   2  056C              	db -9
   2  056C              	db -9
   2  056D              	db -9
   2  056D              	db -25
   2  056E              	db -17
   2  056E              	db -17
   2  056F              	db -17
   2  056F              	db -18
   2  0570              	db -50
   2  0570              	db -34
   2  0571              	db 30
   2  0571              	db 30
   2  0572              	db 62
   2  0572              	db 62
   2  0573              	db 62
   2  0573              	db 28
   2  0574              	db 12
   2  0574              	db 0
   2  0575              	db 0
   2  0575              	db 0
   2  0576              	db 0
   2  0576              	db 0
   2  0577              	db 0
   2  0577              	db 0
   2  0578              	db 0
   2  0578              	db 0
   2  0579              	db 0
   2  0579              	db 0
   2  057A              	db 0
   2  057A              	db 0
   2  057B              	db 0
   2  057B              	db 0
   2  057C              	db 0
   2  057C              	db 0
   2  057D              	db 0
   2  057D              	db 0
   2  057E              	db 0
"File: Font.h        Assembler  Version HGASM0202      Page 66

   2  057E              	db 0
   2  057F              	db 0
   2  057F              	db 0
   2  0580              	db 0
   2  0580              	db 0
   2  0581              	db 0
   2  0581              	db 0
   2  0582              	db 0
   2  0582              	db 0
   2  0583              	db 0
   2  0583              	db 0
   2  0584              	db 0
   2  0584              	db 0
   2  0585              	db 0
   2  0585              	db 0
   2  0586              	db 0
   2  0586              	db 0
   2  0587              	db 0
   2  0587              	db 0
   2  0588              	db 0
   2  0588              	db 0
   2  0589              	db 0
   2  0589              	db 0
   2  058A              	db 0
   2  058A              	db 0
   2  058B              	db 0
   2  058B              	db 0
   2  058C              	db 0
   2  058C              	db 0
   2  058D              	db 0
   2  058D              	db 0
   2  058E              	db 0
   2  058E              	db 0
   2  058F              	db 0
   2  058F              	db 0
   2  0590              	db 0
   2  0590              	db 0
   2  0591              	db 0
   2  0591              	db 0
   2  0592              	db 0
   2  0592              	db 0
   2  0593              	db 0
   2  0593              	db 0
   2  0594              	db 0
   2  0594              	db 0
   2  0595              	db 0
   2  0595              	db 0
   2  0596              	db 0
   2  0596              	db -128
   2  0597              	db -128
   2  0597              	db -128
   2  0598              	db -128
   2  0598              	db -128
   2  0599              	db -128
   2  0599              	db 0
   2  059A              	db 0
   2  059A              	db -128
   2  059B              	db -128
   2  059B              	db -128
   2  059C              	db -128
"File: Font.h        Assembler  Version HGASM0202      Page 67

   2  059C              	db -128
   2  059D              	db -128
   2  059D              	db -127
   2  059E              	db 1
   2  059E              	db 3
   2  059F              	db -125
   2  059F              	db -125
   2  05A0              	db -121
   2  05A0              	db -121
   2  05A1              	db -121
   2  05A1              	db 15
   2  05A2              	db -113
   2  05A2              	db -113
   2  05A3              	db -113
   2  05A3              	db -113
   2  05A4              	db -113
   2  05A4              	db -97
   2  05A5              	db -97
   2  05A5              	db -97
   2  05A6              	db 31
   2  05A6              	db 31
   2  05A7              	db 31
   2  05A7              	db -97
   2  05A8              	db -97
   2  05A8              	db -97
   2  05A9              	db -97
   2  05A9              	db -97
   2  05AA              	db 14
   2  05AA              	db 14
   2  05AB              	db 12
   2  05AB              	db -116
   2  05AC              	db -124
   2  05AC              	db -128
   2  05AD              	db -128
   2  05AD              	db 1
   2  05AE              	db 3
   2  05AE              	db 3
   2  05AF              	db -125
   2  05AF              	db -125
   2  05B0              	db -127
   2  05B0              	db -127
   2  05B1              	db 0
   2  05B1              	db 0
   2  05B2              	db -128
   2  05B2              	db -128
   2  05B3              	db -128
   2  05B3              	db -128
   2  05B4              	db 0
   2  05B4              	db -128
   2  05B5              	db -128
   2  05B5              	db -128
   2  05B6              	db -128
   2  05B6              	db 0
   2  05B7              	db 0
   2  05B7              	db -128
   2  05B8              	db -128
   2  05B8              	db -128
   2  05B9              	db -128
   2  05B9              	db 0
   2  05BA              	db 0
"File: Font.h        Assembler  Version HGASM0202      Page 68

   2  05BA              	db 0
   2  05BB              	db 0
   2  05BB              	db 0
   2  05BC              	db 0
   2  05BC              	db 0
   2  05BD              	db 0
   2  05BD              	db 0
   2  05BE              	db 0
   2  05BE              	db 0
   2  05BF              	db 0
   2  05BF              	db 0
   2  05C0              	db 0
   2  05C0              	db 0
   2  05C1              	db 0
   2  05C1              	db 0
   2  05C2              	db 0
   2  05C2              	db 0
   2  05C3              	db 0
   2  05C3              	db 0
   2  05C4              	db 0
   2  05C4              	db 0
   2  05C5              	db 0
   2  05C5              	db 0
   2  05C6              	db 0
   2  05C6              	db 0
   2  05C7              	db 0
   2  05C7              	db 0
   2  05C8              	db 0
   2  05C8              	db 0
   2  05C9              	db 0
   2  05C9              	db 0
   2  05CA              	db 0
   2  05CA              	db 0
   2  05CB              	db 0
   2  05CB              	db 0
   2  05CC              	db 0
   2  05CC              	db 0
   2  05CD              	db 0
   2  05CD              	db 0
   2  05CE              	db 0
   2  05CE              	db 0
   2  05CF              	db 0
   2  05CF              	db 0
   2  05D0              	db 0
   2  05D0              	db 0
   2  05D1              	db 0
   2  05D1              	db 0
   2  05D2              	db 0
   2  05D2              	db 0
   2  05D3              	db 0
   2  05D3              	db 0
   2  05D4              	db 0
   2  05D4              	db 0
   2  05D5              	db 0
   2  05D5              	db 0
   2  05D6              	db 0
   2  05D6              	db 64
   2  05D7              	db 127
   2  05D7              	db 127
   2  05D8              	db 68
"File: Font.h        Assembler  Version HGASM0202      Page 69

   2  05D8              	db 68
   2  05D9              	db 126
   2  05D9              	db 59
   2  05DA              	db 0
   2  05DA              	db 64
   2  05DB              	db 127
   2  05DB              	db 127
   2  05DC              	db 68
   2  05DC              	db 68
   2  05DD              	db 64
   2  05DD              	db 97
   2  05DE              	db 0
   2  05DE              	db 115
   2  05DF              	db 103
   2  05DF              	db 78
   2  05E0              	db 92
   2  05E0              	db 121
   2  05E1              	db 51
   2  05E1              	db 0
   2  05E2              	db 3
   2  05E2              	db 1
   2  05E3              	db 64
   2  05E3              	db 127
   2  05E4              	db 127
   2  05E4              	db 64
   2  05E5              	db 1
   2  05E5              	db 3
   2  05E6              	db 0
   2  05E6              	db 30
   2  05E7              	db 63
   2  05E7              	db 97
   2  05E8              	db 64
   2  05E8              	db 64
   2  05E9              	db 65
   2  05E9              	db 35
   2  05EA              	db 0
   2  05EA              	db 30
   2  05EB              	db 63
   2  05EB              	db 97
   2  05EC              	db 64
   2  05EC              	db 64
   2  05ED              	db 97
   2  05ED              	db 63
   2  05EE              	db 30
   2  05EE              	db 0
   2  05EF              	db 64
   2  05EF              	db 127
   2  05F0              	db 65
   2  05F0              	db 7
   2  05F1              	db 30
   2  05F1              	db 6
   2  05F2              	db 65
   2  05F2              	db 127
   2  05F3              	db 127
   2  05F3              	db 64
   2  05F4              	db 0
   2  05F4              	db 64
   2  05F5              	db 127
   2  05F5              	db 65
   2  05F6              	db 7
"File: Font.h        Assembler  Version HGASM0202      Page 70

   2  05F6              	db 30
   2  05F7              	db 6
   2  05F7              	db 65
   2  05F8              	db 127
   2  05F8              	db 127
   2  05F9              	db 64
   2  05F9              	db 0
   2  05FA              	db 0
   2  05FA              	db 0
   2  05FB              	db 0
   2  05FB              	db 0
   2  05FC              	db 0
   2  05FC              	db 0
   2  05FD              	db 0
   2  05FD              	db 0
   2  05FE              	db 0
   2  05FE              	db 0
   2  05FF              	db 0
   2  05FF              	db 0
   2  0600              	db 0
   2  0600              	db 0
   2  0601              	db 0
   2  0601              	db 0
   2  0602              	db 0
   2  0602              	db 0
   2  0603              	db 0
   2  0603              	db 0
   2  0604              	db 0
   2  0604              	db 0
   2  0605              	db 0
   2  0605              	db 0
   2  0606              	db 0
   2  0606              	db 0
   2  0607              	db 0
   2  0607              	db 0
   2  0608              	db 0
   2  0608              	db 0
   2  0609              	db 0
   2  0609              	db 0
   2  060A              	db 0
   2  060A              	db 0
   2  060B              	db 0
   2  060B              	db 0
   2  060C              	db 0
   2  060C              	db 0
   2  060D              	db 0
   2  060D              	db 0
   2  060E              	db 0
   2  060E              	db 0
   2  060F              	db 0
   2  060F              	db 0
   2  0610              	db 0
   2  0610              	db 0
   2  0611              	db 0
   2  0611              	db 0
   2  0612              	db 0
   2  0612              	db 0
   2  0613              	db 0
   2  0613              	db 0
   2  0614              	db 0
"File: Font.h        Assembler  Version HGASM0202      Page 71

   2  0614              	db 0
   2  0615              	db 0
   2  0615              #pragma debug struct_end
   2  0615              #pragma debug struct_end
   2  0615              #pragma debug union_end
   2  0615              #pragma debug union_end
   2  0615              #pragma debug variable 50 1 ___pb "__pb" 1
   2  0615              #pragma debug struct_end
   2  0615              #pragma debug struct_end
   2  0615              #pragma debug union_end
   2  0615              #pragma debug union_end
   2  0615              #pragma debug variable 52 1 ___pbc "__pbc" 1
   2  0615              #pragma debug struct_end
   2  0615              #pragma debug struct_end
   2  0615              #pragma debug union_end
   2  0615              #pragma debug union_end
   2  0615              #pragma debug variable 54 1 ___pc "__pc" 1
   2  0615              #pragma debug struct_end
   2  0615              #pragma debug struct_end
   2  0615              #pragma debug union_end
   2  0615              #pragma debug union_end
   2  0615              #pragma debug variable 56 1 ___pcc "__pcc" 1
   2  0615              #pragma debug struct_end
   2  0615              #pragma debug struct_end
   2  0615              #pragma debug union_end
   2  0615              #pragma debug union_end
   2  0615              #pragma debug variable 58 1 ___simc0 "__simc0" 1
   2  0615              #pragma debug variable 8 1 ___simd "__simd" 1
   2  0615              #pragma debug struct_end
   2  0615              #pragma debug struct_end
   2  0615              #pragma debug union_end
   2  0615              #pragma debug union_end
   2  0615              #pragma debug variable 60 1 ___simc2 "__simc2" 1
   2  0615              #pragma debug struct_end
   2  0615              #pragma debug struct_end
   2  0615              #pragma debug union_end
   2  0615              #pragma debug union_end
   2  0615              #pragma debug variable 62 1 ___pbs1 "__pbs1" 1
   2  0615              #pragma debug struct_end
   2  0615              #pragma debug struct_end
   2  0615              #pragma debug union_end
   2  0615              #pragma debug union_end
   2  0615              #pragma debug variable 64 1 ___pcs0 "__pcs0" 1
   2  0615              
   2  0615              ; 
   2  0615              ; Generated by holtek-gcc v3.19, Sat May 21 17:21:06 2022
   2  0615              ; Rebuild 718
   2  0615              ; end of file


        0 Errors, 0