"File: RF_API.c      Assembler  Version HGASM0202      Page 1


   1  0000              ; Generated by holtek-gcc v3.19, Fri May 27 15:24:08 2022
   2  0000              ; 
   3  0000              ; Configuration:
   4  0000              ;       with long instruction
   5  0000              ;       Single ROM, Multi-RAM
   6  0000              ;       bits_per_rom_unit:16
   7  0000              ;       with mp1
   8  0000              ;       with tbhp, address(0x9)
   9  0000              ;          Use tabrd-const
  10  0000              ;       
  11  0000              ; SFR address of long-instruction arch:
  12  0000              ;    mp0 = -1,1,0
  13  0000              ;    mp1 = 4,3,2
  14  0000              ;    mp2 = 14,13,12
  15  0000              ;    tbp = 9,7,8
  16  0000              ;    acc = 5
  17  0000              ;    pcl = 6
  18  0000              ;    status = 10
  19  0000              ;    bp = 11
  20  0000              ;    intc = 17
  21  0000              ;       
  22  0000              ;       
  23  0000              ; use 'tabrdc' instead of 'tabrd'
  24  0000              ;       
  25  0000              
  26  0000              #pragma translator "holtek-gcc 4.6.4" "3.19" "build 20130711"
  27  0000              ; Rebuild 718
  28  0000              
  29  0000              ir equ [2]
  30  0000              mp equ [3]
  31  0000              sbp equ [4]
  32  0000              acc equ [5]
  33  0000              bp equ [11]
  34  0000              tblp equ [7]
  35  0000              tbhp equ [9]
  36  0000              status equ [10]
  37  0000              c equ [10].0
  38  0000              ac equ [10].1
  39  0000              z equ [10].2
  40  0000              ov equ [10].3
  41  0000              cz equ [10].6
  42  0000              sc equ [10].7
  43  0000              intc equ [17]
  44  0000              
  45  0000              extern ra:byte
  46  0000              extern rb:byte
  47  0000              extern rc:byte
  48  0000              extern rd:byte
  49  0000              extern re:byte
  50  0000              extern rf:byte
  51  0000              extern rg:byte
  52  0000              extern rh:byte
  53  0000              extern _Crom2Prom:near
  54  0000              extern _Crom2PromNext:near
  55  0000              
  56  0000              RAMBANK 0 @BITDATASEC, @BITDATASEC1
  57  0000              @HCCINIT	.section 'data'
  58  0000              @HCCINIT0	.section 'data'
  59  0000              @BITDATASEC	 .section 'data'
"File: RF_API.ASM    Assembler  Version HGASM0202      Page 2

  60  0000              @BITDATASEC1	 .section 'data'
  61  0000              
  62  0000              #pragma debug scope 1 1
  63  0000              	extern __DELAY3:near
  64  0000              	extern __DELAYX3:near
  65  0000              	extern __DELAYX6:near
  66  0000              	extern __DELAYY5:near
  67  0000              	extern __DELAYY3:near
  68  0000              	extern _builtin_holtek_delay_2:byte
  69  0000              public _RF_Parameter_loading
  70  0000              #pragma debug scope 2 1

  25  0000              #line 25 "c:\users\user\documents\htk_project\3652_adc_test_vib_1\RF_API.c"
  25  0000              _RF_Parameter_loading .section 'code'
  25  0000              _RF_Parameter_loading proc
  25  0000  00              local _RF_Parameter_loading_2 db 1 dup(?)	; 0,1
  25  0001              #pragma debug variable 8 2 _RF_Parameter_loading_2+0 "mode_sts"
  27  0001              #line 27 "c:\users\user\documents\htk_project\3652_adc_test_vib_1\RF_API.c"
  27  0000  0F0C        	mov a,12
  27  0001  2000     E  	call _SpiWriteStrobeCMD
  28  0002              #line 28 "c:\users\user\documents\htk_project\3652_adc_test_vib_1\RF_API.c"
  28  0002  0700     R  	mov a,_BC3602_T[0]
  28  0003  0080     R  	mov _RF_Parameter_loading_2[0],a
  29  0004              #line 29 "c:\users\user\documents\htk_project\3652_adc_test_vib_1\RF_API.c"
  29  0004  0F02        	mov a,2
  29  0005  0080     R  	mov _BC3602_T[0],a
  30  0006              #line 30 "c:\users\user\documents\htk_project\3652_adc_test_vib_1\RF_API.c"
  30  0006  0F04        	mov a,4
  30  0007  0080     R  	mov _BC3602_T[5],a
  32  0008              #line 32 "c:\users\user\documents\htk_project\3652_adc_test_vib_1\RF_API.c"
  32  0008  0F00     R  	mov a,low offset _syncword
  32  0009  0080     E  	mov _RFReadBuf2_2[1],a
  32  000A  0F00     R  	mov a,high offset _syncword
  32  000B  0080     E  	mov _RFReadBuf2_2[2],a
  32  000C  0F04        	mov a,4
  32  000D  0080     E  	mov _RFReadBuf2_2[0],a
  32  000E  0F90        	mov a,144
  32  000F  2000     E  	call _RFReadBuf2
  33  0010              #line 33 "c:\users\user\documents\htk_project\3652_adc_test_vib_1\RF_API.c"
  33  0010  0F00     R  	mov a,low offset _syncword
  33  0011  0080     R  	mov _BC3602_T[3],a
  33  0012  0F00     R  	mov a,high offset _syncword
  33  0013  0080     R  	mov _BC3602_T[4],a
  35  0014              #line 35 "c:\users\user\documents\htk_project\3652_adc_test_vib_1\RF_API.c"
  35  0014  0F02        	mov a,2
  35  0015  0080     R  	mov _BC3602_T[7],a
  36  0016              #line 36 "c:\users\user\documents\htk_project\3652_adc_test_vib_1\RF_API.c"
  36  0016  0F02        	mov a,2
  36  0017  0080     R  	mov _BC3602_T[8],a
  38  0018              #line 38 "c:\users\user\documents\htk_project\3652_adc_test_vib_1\RF_API.c"
  38  0018  0F04        	mov a,4
  38  0019  2000     E  	call _SpiReadRegCMD
  38  001A  0080     E  	mov ra,a
  38  001B  0700     E  	mov a,ra
  38  001C  0080     R  	mov _BC3602_T[6],a
  40  001D              #line 40 "c:\users\user\documents\htk_project\3652_adc_test_vib_1\RF_API.c"
  40  001D  0F0B        	mov a,11
  40  001E  2000     E  	call _SpiReadRegCMD
  40  001F  0080     E  	mov ra,a
  40  0020  0700     E  	mov a,ra
"File: RF_API.c      Assembler  Version HGASM0202      Page 3

  40  0021  0080     R  	mov _BC3602_T[9],a
  41  0022              #line 41 "c:\users\user\documents\htk_project\3652_adc_test_vib_1\RF_API.c"
  41  0022  0F0F        	mov a,15
  41  0023  2000     E  	call _SpiReadRegCMD
  41  0024  0080     E  	mov ra,a
  41  0025  0700     E  	mov a,ra
  41  0026  0080     R  	mov _BC3602_T[10],a
  41  0027  1F00     R  	clr _BC3602_T[11]
  42  0028              #line 42 "c:\users\user\documents\htk_project\3652_adc_test_vib_1\RF_API.c"
  42  0028  0F00     E  	mov a,low offset _RF_TXFIFO
  42  0029  0080     R  	mov _BC3602_T[12],a
  42  002A  0F00     E  	mov a,high offset _RF_TXFIFO
  42  002B  0080     R  	mov _BC3602_T[13],a
  44  002C              #line 44 "c:\users\user\documents\htk_project\3652_adc_test_vib_1\RF_API.c"
  44  002C  0F0C        	mov a,12
  44  002D  2000     E  	call _SpiReadRegCMD
  44  002E  0080     E  	mov ra,a
  44  002F  0700     E  	mov a,ra
  44  0030  0E03        	and a,3
  44  0031  0080     R  	mov _BC3602_T[16],a
  45  0032              #line 45 "c:\users\user\documents\htk_project\3652_adc_test_vib_1\RF_API.c"
  45  0032  0700     R  	mov a,_BC3602_T[10]
  45  0033  0080     R  	mov _BC3602_T[17],a
  45  0034  0700     R  	mov a,_BC3602_T[11]
  45  0035  0080     R  	mov _BC3602_T[18],a
  46  0036              #line 46 "c:\users\user\documents\htk_project\3652_adc_test_vib_1\RF_API.c"
  46  0036  1F00     R  	clr _BC3602_T[19]
  46  0037  1F00     R  	clr _BC3602_T[20]
  47  0038              #line 47 "c:\users\user\documents\htk_project\3652_adc_test_vib_1\RF_API.c"
  47  0038  0F00     E  	mov a,low offset _RF_RXFIFO
  47  0039  0080     R  	mov _BC3602_T[21],a
  47  003A  0F00     E  	mov a,high offset _RF_RXFIFO
  47  003B  0080     R  	mov _BC3602_T[22],a
  50  003C              #line 50 "c:\users\user\documents\htk_project\3652_adc_test_vib_1\RF_API.c"
  50  003C  0700     R  	mov a,_RF_Parameter_loading_2[0]
  50  003D  0080     R  	mov _BC3602_T[0],a
  50  003E  0003        	ret
  50  003F              _RF_Parameter_loading endp
  50  003F              #line 50 "c:\users\user\documents\htk_project\3652_adc_test_vib_1\RF_API.c"
  50  003F              #pragma debug scope 1 1
  50  003F              ___pa equ [20]
  50  003F              public _SimpleFIFO_TX_Process
  50  003F              #pragma debug scope 3 1
  62  003F              #line 62 "c:\users\user\documents\htk_project\3652_adc_test_vib_1\RF_API.c"
  62  0000              _SimpleFIFO_TX_Process .section 'code'
  62  0000              _SimpleFIFO_TX_Process proc
  62  0000              public _SimpleFIFO_TX_Process_2
  62  0000  0003[           local _SimpleFIFO_TX_Process_2 db 3 dup(?)	; 2,1
            00
            ]
  62  0003              #pragma debug struct_end
  62  0003              #pragma debug struct_end
  62  0003              #pragma debug pointer 43 42 3
  62  0003              #pragma debug pointer 43 42 3
  62  0003              #pragma debug variable 43 3 _SimpleFIFO_TX_Process_2+0 "BC3602_T"
  64  0003              #line 64 "c:\users\user\documents\htk_project\3652_adc_test_vib_1\RF_API.c"
  64  0000  0700     R  	mov a,_SimpleFIFO_TX_Process_2[0]
  64  0001  0080     E  	mov rb,a
  64  0002  0700     R  	mov a,_SimpleFIFO_TX_Process_2[1]
  64  0003  0080     E  	mov rc,a
"File: RF_API.c      Assembler  Version HGASM0202      Page 4

  64  0004  0F01        	mov a,1
  64  0005  0300     E  	add a,rb
  64  0006  0083        	mov mp,a
  64  0007  0F00        	mov a,0
  64  0008  1300     E  	adc a,rc
  64  0009  0084        	mov sbp,a
  64  000A  2000     E  	call _Crom2Prom
  64  000B  0080     R  	mov _SimpleFIFO_TX_Process_2[2],a
  64  000C  1E00     R  	snz _SimpleFIFO_TX_Process_2[2]
  64  000D  2800     R  	jmp _L4
  64  000E              #line 64 "c:\users\user\documents\htk_project\3652_adc_test_vib_1\RF_API.c"
  64  000E  1700     R  	sdza _SimpleFIFO_TX_Process_2[2]
  64  000F  2800     R  	jmp _L2
  64  0010  2800     R  	jmp _L15
  64  0011              _L4:
  67  0011              #line 67 "c:\users\user\documents\htk_project\3652_adc_test_vib_1\RF_API.c"
  67  0011  0F06        	mov a,6
  67  0012  0300     E  	add a,rb
  67  0013  0083        	mov mp,a
  67  0014  0F00        	mov a,0
  67  0015  1300     E  	adc a,rc
  67  0016  0084        	mov sbp,a
  67  0017  0F00        	mov a,0
  67  0018  0082        	mov ir,a
  68  0019              #line 68 "c:\users\user\documents\htk_project\3652_adc_test_vib_1\RF_API.c"
  68  0019  0F0C        	mov a,12
  68  001A  2000     E  	call _SpiWriteStrobeCMD
  69  001B              #line 69 "c:\users\user\documents\htk_project\3652_adc_test_vib_1\RF_API.c"
  69  001B  0700     R  	mov a,_SimpleFIFO_TX_Process_2[0]
  69  001C  0083        	mov mp,a
  69  001D  0700     R  	mov a,_SimpleFIFO_TX_Process_2[1]
  69  001E  0084        	mov sbp,a
  69  001F  0F02        	mov a,2
  69  0020  0082        	mov ir,a
  70  0021              #line 70 "c:\users\user\documents\htk_project\3652_adc_test_vib_1\RF_API.c"
  70  0021  0F01        	mov a,1
  70  0022  0080     E  	mov _SpiWriteRegCMD_2[0],a
  70  0023  0F03        	mov a,3
  70  0024  2000     E  	call _SpiWriteRegCMD
  82  0025              #line 82 "c:\users\user\documents\htk_project\3652_adc_test_vib_1\RF_API.c"
  82  0025  0F09        	mov a,9
  82  0026  0300     R  	add a,_SimpleFIFO_TX_Process_2[0]
  82  0027  0083        	mov mp,a
  82  0028  0F00        	mov a,0
  82  0029  1300     R  	adc a,_SimpleFIFO_TX_Process_2[1]
  82  002A  0084        	mov sbp,a
  82  002B  2000     E  	call _Crom2Prom
  82  002C  0080     E  	mov _SpiWriteRegCMD_2[0],a
  82  002D  0F0B        	mov a,11
  82  002E  2000     E  	call _SpiWriteRegCMD
  83  002F              #line 83 "c:\users\user\documents\htk_project\3652_adc_test_vib_1\RF_API.c"
  83  002F  0F09        	mov a,9
  83  0030  2000     E  	call _SpiWriteStrobeCMD
  84  0031              #line 84 "c:\users\user\documents\htk_project\3652_adc_test_vib_1\RF_API.c"
  84  0031  1F00     E  	clr _SpiWriteRegCMD_2[0]
  84  0032  0F09        	mov a,9
  84  0033  2000     E  	call _SpiWriteRegCMD
  85  0034              #line 85 "c:\users\user\documents\htk_project\3652_adc_test_vib_1\RF_API.c"
  85  0034  0F0A        	mov a,10
  85  0035  0300     R  	add a,_SimpleFIFO_TX_Process_2[0]
"File: RF_API.c      Assembler  Version HGASM0202      Page 5

  85  0036  0083        	mov mp,a
  85  0037  0F00        	mov a,0
  85  0038  1300     R  	adc a,_SimpleFIFO_TX_Process_2[1]
  85  0039  0084        	mov sbp,a
  85  003A  2000     E  	call _Crom2Prom
  85  003B  0080     E  	mov _SpiWriteRegCMD_2[0],a
  85  003C  0F0F        	mov a,15
  85  003D  2000     E  	call _SpiWriteRegCMD
  86  003E              #line 86 "c:\users\user\documents\htk_project\3652_adc_test_vib_1\RF_API.c"
  86  003E  0700     R  	mov a,_SimpleFIFO_TX_Process_2[0]
  86  003F  0080     E  	mov rb,a
  86  0040  0700     R  	mov a,_SimpleFIFO_TX_Process_2[1]
  86  0041  0080     E  	mov rc,a
  86  0042  0F0C        	mov a,12
  86  0043  0300     E  	add a,rb
  86  0044  0083        	mov mp,a
  86  0045  0F00        	mov a,0
  86  0046  1300     E  	adc a,rc
  86  0047  0084        	mov sbp,a
  86  0048  2000     E  	call _Crom2Prom
  86  0049  0080     E  	mov _RFWriteBuf2_2[1],a
  86  004A  2000     E  	call _Crom2PromNext
  86  004B  0080     E  	mov _RFWriteBuf2_2[2],a
  86  004C  0F0A        	mov a,10
  86  004D  0300     E  	add a,rb
  86  004E  0083        	mov mp,a
  86  004F  0F00        	mov a,0
  86  0050  1300     E  	adc a,rc
  86  0051  0084        	mov sbp,a
  86  0052  2000     E  	call _Crom2Prom
  86  0053  0080     E  	mov _RFWriteBuf2_2[0],a
  86  0054  0F11        	mov a,17
  86  0055  2000     E  	call _RFWriteBuf2
  87  0056              #line 87 "c:\users\user\documents\htk_project\3652_adc_test_vib_1\RF_API.c"
  87  0056  0F0E        	mov a,14
  87  0057  2000     E  	call _SpiWriteStrobeCMD
  88  0058              #line 88 "c:\users\user\documents\htk_project\3652_adc_test_vib_1\RF_API.c"
  88  0058  0700     R  	mov a,_SimpleFIFO_TX_Process_2[0]
  88  0059  0083        	mov mp,a
  88  005A  0700     R  	mov a,_SimpleFIFO_TX_Process_2[1]
  88  005B  0084        	mov sbp,a
  88  005C  0F04        	mov a,4
  88  005D  0082        	mov ir,a
  89  005E              #line 89 "c:\users\user\documents\htk_project\3652_adc_test_vib_1\RF_API.c"
  89  005E  0F01        	mov a,1
  89  005F  0300     R  	add a,_SimpleFIFO_TX_Process_2[0]
  89  0060  0083        	mov mp,a
  89  0061  0F00        	mov a,0
  89  0062  1300     R  	adc a,_SimpleFIFO_TX_Process_2[1]
  89  0063  0084        	mov sbp,a
  89  0064  2000     E  	call _Crom2Prom
  89  0065  0080     R  	mov _SimpleFIFO_TX_Process_2[2],a
  89  0066  1400     R  	inca _SimpleFIFO_TX_Process_2[2]
  89  0067  0080     E  	mov ra,a
  89  0068  0700     E  	mov a,ra
  89  0069  0082        	mov ir,a
  90  006A              #line 90 "c:\users\user\documents\htk_project\3652_adc_test_vib_1\RF_API.c"
  90  006A  2800     R  	jmp _L2
  90  006B              _L15:
  93  006B              #line 93 "c:\users\user\documents\htk_project\3652_adc_test_vib_1\RF_API.c"
"File: RF_API.c      Assembler  Version HGASM0202      Page 6

  93  006B  3C94        	sz [20].1
  93  006C  2800     R  	jmp _L6
  95  006D              #line 95 "c:\users\user\documents\htk_project\3652_adc_test_vib_1\RF_API.c"
  95  006D  0F04        	mov a,4
  95  006E  2000     E  	call _SpiReadRegCMD
  95  006F  0080     E  	mov ra,a
  95  0070  0F06        	mov a,6
  95  0071  0300     R  	add a,_SimpleFIFO_TX_Process_2[0]
  95  0072  0083        	mov mp,a
  95  0073  0F00        	mov a,0
  95  0074  1300     R  	adc a,_SimpleFIFO_TX_Process_2[1]
  95  0075  0084        	mov sbp,a
  95  0076  0700     E  	mov a,ra
  95  0077  0082        	mov ir,a
  95  0078              _L6:
  97  0078              #line 97 "c:\users\user\documents\htk_project\3652_adc_test_vib_1\RF_API.c"
  97  0078  0700     R  	mov a,_SimpleFIFO_TX_Process_2[0]
  97  0079  0080     E  	mov rb,a
  97  007A  0700     R  	mov a,_SimpleFIFO_TX_Process_2[1]
  97  007B  0080     E  	mov rc,a
  97  007C  0F06        	mov a,6
  97  007D  0300     E  	add a,rb
  97  007E  0083        	mov mp,a
  97  007F  0F00        	mov a,0
  97  0080  1300     E  	adc a,rc
  97  0081  0084        	mov sbp,a
  97  0082  2000     E  	call _Crom2Prom
  97  0083  0080     E  	mov ra,a
  97  0084  3800     E  	snz ra.0
  97  0085  2800     R  	jmp _L7
  99  0086              #line 99 "c:\users\user\documents\htk_project\3652_adc_test_vib_1\RF_API.c"
  99  0086  0F0E        	mov a,14
  99  0087  0300     E  	add a,rb
  99  0088  0083        	mov mp,a
  99  0089  0F00        	mov a,0
  99  008A  1300     E  	adc a,rc
  99  008B  0084        	mov sbp,a
  99  008C  0F01        	mov a,1
  99  008D  0082        	mov ir,a
 100  008E              #line 100 "c:\users\user\documents\htk_project\3652_adc_test_vib_1\RF_API.c"
 100  008E  0F01        	mov a,1
 100  008F  0080     E  	mov _SpiWriteRegCMD_2[0],a
 100  0090  0F04        	mov a,4
 100  0091  2000     E  	call _SpiWriteRegCMD
 101  0092              #line 101 "c:\users\user\documents\htk_project\3652_adc_test_vib_1\RF_API.c"
 101  0092              ;# 101 "c:\users\user\documents\htk_project\3652_adc_test_vib_1\RF_API.c" 1
 101  0092              	IF 100>263690
 101  0092              ;# 101 "c:\users\user\documents\htk_project\3652_adc_test_vib_1\RF_API.c" 1
 101  0092              	ERRMESSAGE 'the value 100of the argument exceeds the maxinum 263690'
 101  0092              	ENDIF
 101  0092              ;# 101 "c:\users\user\documents\htk_project\3652_adc_test_vib_1\RF_API.c" 1
 101  0092              	IF 100<0
 101  0092              ;# 101 "c:\users\user\documents\htk_project\3652_adc_test_vib_1\RF_API.c" 1
 101  0092              	ERRMESSAGE 'the value 100 of the argument exceeds the mininum 0'
 101  0092              	ENDIF
 101  0092              ;# 101 "c:\users\user\documents\htk_project\3652_adc_test_vib_1\RF_API.c" 1
 101  0092              	IF 100==0
 101  0092              ;# 101 "c:\users\user\documents\htk_project\3652_adc_test_vib_1\RF_API.c" 1
 101  0092              	JMP $
 101  0092              	ENDIF
"File: RF_API.c      Assembler  Version HGASM0202      Page 7

 101  0092              ;# 101 "c:\users\user\documents\htk_project\3652_adc_test_vib_1\RF_API.c" 1
 101  0092              	IF 100==1
 101  0092              ;# 101 "c:\users\user\documents\htk_project\3652_adc_test_vib_1\RF_API.c" 1
 101  0092              	NOP
 101  0092              	ENDIF
 101  0092              ;# 101 "c:\users\user\documents\htk_project\3652_adc_test_vib_1\RF_API.c" 1
 101  0092              	IF 100==2
 101  0092              ;# 101 "c:\users\user\documents\htk_project\3652_adc_test_vib_1\RF_API.c" 1
 101  0092              	NOP
 101  0092              ;# 101 "c:\users\user\documents\htk_project\3652_adc_test_vib_1\RF_API.c" 1
 101  0092              	NOP
 101  0092              	ENDIF
 101  0092              ;# 101 "c:\users\user\documents\htk_project\3652_adc_test_vib_1\RF_API.c" 1
 101  0092              	IF 100==3
 101  0092              ;# 101 "c:\users\user\documents\htk_project\3652_adc_test_vib_1\RF_API.c" 1
 101  0092              	NOP
 101  0092              ;# 101 "c:\users\user\documents\htk_project\3652_adc_test_vib_1\RF_API.c" 1
 101  0092              	NOP
 101  0092              ;# 101 "c:\users\user\documents\htk_project\3652_adc_test_vib_1\RF_API.c" 1
 101  0092              	NOP
 101  0092              	ENDIF
 101  0092              ;# 101 "c:\users\user\documents\htk_project\3652_adc_test_vib_1\RF_API.c" 1
 101  0092              	IF (100<8) AND (100>3)
 101  0092              ;# 101 "c:\users\user\documents\htk_project\3652_adc_test_vib_1\RF_API.c" 1
 101  0092              	CALL __DELAY3 + 7 -100
 101  0092              	ENDIF
 101  0092              ;# 101 "c:\users\user\documents\htk_project\3652_adc_test_vib_1\RF_API.c" 1
 101  0092              	IF (100< 0404h) AND (100>7)
 101  0092              ;# 101 "c:\users\user\documents\htk_project\3652_adc_test_vib_1\RF_API.c" 1
 101  0092  0F18        	MOV A,100/4-1
 101  0093              ;# 101 "c:\users\user\documents\htk_project\3652_adc_test_vib_1\RF_API.c" 1
 101  0093  2000     E  	CALL __DELAYX3 + 3 -(100 MOD 4)
 101  0094              	ENDIF
 101  0094              ;# 101 "c:\users\user\documents\htk_project\3652_adc_test_vib_1\RF_API.c" 1
 101  0094              	IF (100< 0x40B) AND (100> 0403h)
 101  0094              ;# 101 "c:\users\user\documents\htk_project\3652_adc_test_vib_1\RF_API.c" 1
 101  0094              	MOV A,0 
 101  0094              ;# 101 "c:\users\user\documents\htk_project\3652_adc_test_vib_1\RF_API.c" 1
 101  0094              	CALL __DELAYX6 + 0x40a -100
 101  0094              	ENDIF
 101  0094              ;# 101 "c:\users\user\documents\htk_project\3652_adc_test_vib_1\RF_API.c" 1
 101  0094              	IF (100 >= 0x40b) AND ((((100-9)%0402h)/4+1)>256)
 101  0094              ;# 101 "c:\users\user\documents\htk_project\3652_adc_test_vib_1\RF_API.c" 1
 101  0094              	MOV A,(100-9)/0402h
 101  0094              ;# 101 "c:\users\user\documents\htk_project\3652_adc_test_vib_1\RF_API.c" 1
 101  0094              	MOV _builtin_holtek_delay_2,A
 101  0094              ;# 101 "c:\users\user\documents\htk_project\3652_adc_test_vib_1\RF_API.c" 1
 101  0094              	MOV A,0
 101  0094              ;# 101 "c:\users\user\documents\htk_project\3652_adc_test_vib_1\RF_API.c" 1
 101  0094              	CALL __DELAYY5 +5- (((100-9)%0402h)%6)
 101  0094              	ENDIF
 101  0094              ;# 101 "c:\users\user\documents\htk_project\3652_adc_test_vib_1\RF_API.c" 1
 101  0094              	IF (100 >= 0x40b) AND ((((100-9)%0402h)/4+1)<=256)
 101  0094              ;# 101 "c:\users\user\documents\htk_project\3652_adc_test_vib_1\RF_API.c" 1
 101  0094              	MOV A,(100-9)/0402h
 101  0094              ;# 101 "c:\users\user\documents\htk_project\3652_adc_test_vib_1\RF_API.c" 1
 101  0094              	MOV _builtin_holtek_delay_2,A
 101  0094              ;# 101 "c:\users\user\documents\htk_project\3652_adc_test_vib_1\RF_API.c" 1
 101  0094              	MOV A,((100-9)%0402h)/4+1
 101  0094              ;# 101 "c:\users\user\documents\htk_project\3652_adc_test_vib_1\RF_API.c" 1
"File: RF_API.c      Assembler  Version HGASM0202      Page 8

 101  0094              	CALL __DELAYY3 +3-(((100-9)%0402h)%4)
 101  0094              	ENDIF
 102  0094              #line 102 "c:\users\user\documents\htk_project\3652_adc_test_vib_1\RF_API.c"
 102  0094  0F0C        	mov a,12
 102  0095  2000     E  	call _SpiWriteStrobeCMD
 103  0096              #line 103 "c:\users\user\documents\htk_project\3652_adc_test_vib_1\RF_API.c"
 103  0096  0700     R  	mov a,_SimpleFIFO_TX_Process_2[0]
 103  0097  0083        	mov mp,a
 103  0098  0700     R  	mov a,_SimpleFIFO_TX_Process_2[1]
 103  0099  0084        	mov sbp,a
 103  009A  0F05        	mov a,5
 103  009B  0082        	mov ir,a
 104  009C              #line 104 "c:\users\user\documents\htk_project\3652_adc_test_vib_1\RF_API.c"
 104  009C  0F06        	mov a,6
 104  009D  0300     R  	add a,_SimpleFIFO_TX_Process_2[0]
 104  009E  0083        	mov mp,a
 104  009F  0F00        	mov a,0
 104  00A0  1300     R  	adc a,_SimpleFIFO_TX_Process_2[1]
 104  00A1  0084        	mov sbp,a
 104  00A2  2000     E  	call _Crom2Prom
 104  00A3  0080     E  	mov ra,a
 104  00A4  3400     E  	clr ra.0
 104  00A5  0700     E  	mov a,ra
 104  00A6  0082        	mov ir,a
 105  00A7              #line 105 "c:\users\user\documents\htk_project\3652_adc_test_vib_1\RF_API.c"
 105  00A7  0F01        	mov a,1
 105  00A8  0300     R  	add a,_SimpleFIFO_TX_Process_2[0]
 105  00A9  0083        	mov mp,a
 105  00AA  0F00        	mov a,0
 105  00AB  1300     R  	adc a,_SimpleFIFO_TX_Process_2[1]
 105  00AC  0084        	mov sbp,a
 105  00AD  0F00        	mov a,0
 105  00AE  0082        	mov ir,a
 105  00AF              _L7:
 120  00AF              #line 120 "c:\users\user\documents\htk_project\3652_adc_test_vib_1\RF_API.c"
 120  00AF  0F06        	mov a,6
 120  00B0  0300     R  	add a,_SimpleFIFO_TX_Process_2[0]
 120  00B1  0083        	mov mp,a
 120  00B2  0F00        	mov a,0
 120  00B3  1300     R  	adc a,_SimpleFIFO_TX_Process_2[1]
 120  00B4  0084        	mov sbp,a
 120  00B5  2000     E  	call _Crom2Prom
 120  00B6  0080     E  	mov ra,a
 120  00B7  1E00     E  	snz ra
 120  00B8  2800     R  	jmp _L2
 122  00B9              #line 122 "c:\users\user\documents\htk_project\3652_adc_test_vib_1\RF_API.c"
 122  00B9  0700     E  	mov a,ra
 122  00BA  0080     E  	mov _SpiWriteRegCMD_2[0],a
 122  00BB  0F04        	mov a,4
 122  00BC  2000     E  	call _SpiWriteRegCMD
 123  00BD              #line 123 "c:\users\user\documents\htk_project\3652_adc_test_vib_1\RF_API.c"
 123  00BD  0F06        	mov a,6
 123  00BE  0300     R  	add a,_SimpleFIFO_TX_Process_2[0]
 123  00BF  0083        	mov mp,a
 123  00C0  0F00        	mov a,0
 123  00C1  1300     R  	adc a,_SimpleFIFO_TX_Process_2[1]
 123  00C2  0084        	mov sbp,a
 123  00C3  0F00        	mov a,0
 123  00C4  0082        	mov ir,a
 124  00C5              #line 124 "c:\users\user\documents\htk_project\3652_adc_test_vib_1\RF_API.c"
"File: RF_API.c      Assembler  Version HGASM0202      Page 9

 124  00C5  0F01        	mov a,1
 124  00C6  0300     R  	add a,_SimpleFIFO_TX_Process_2[0]
 124  00C7  0083        	mov mp,a
 124  00C8  0F00        	mov a,0
 124  00C9  1300     R  	adc a,_SimpleFIFO_TX_Process_2[1]
 124  00CA  0084        	mov sbp,a
 124  00CB  0F00        	mov a,0
 124  00CC  0082        	mov ir,a
 124  00CD              _L2:
 124  00CD  0003        	ret
 124  00CE              _SimpleFIFO_TX_Process endp
 124  00CE              #line 124 "c:\users\user\documents\htk_project\3652_adc_test_vib_1\RF_API.c"
 124  00CE              #pragma debug scope 1 1
 124  00CE              public _SimpleFIFO_RX_Process
 124  00CE              #pragma debug scope 4 1
 139  00CE              #line 139 "c:\users\user\documents\htk_project\3652_adc_test_vib_1\RF_API.c"
 139  0000              _SimpleFIFO_RX_Process .section 'code'
 139  0000              _SimpleFIFO_RX_Process proc
 139  0000              public _SimpleFIFO_RX_Process_2
 139  0000  0003[           local _SimpleFIFO_RX_Process_2 db 3 dup(?)	; 2,1
            00
            ]
 139  0003              #pragma debug struct_end
 139  0003              #pragma debug struct_end
 139  0003              #pragma debug pointer 45 44 4
 139  0003              #pragma debug pointer 45 44 4
 139  0003              #pragma debug variable 45 4 _SimpleFIFO_RX_Process_2+0 "BC3602_T"
 140  0003              #line 140 "c:\users\user\documents\htk_project\3652_adc_test_vib_1\RF_API.c"
 140  0000  0700     R  	mov a,_SimpleFIFO_RX_Process_2[0]
 140  0001  0080     E  	mov rb,a
 140  0002  0700     R  	mov a,_SimpleFIFO_RX_Process_2[1]
 140  0003  0080     E  	mov rc,a
 140  0004  0F01        	mov a,1
 140  0005  0300     E  	add a,rb
 140  0006  0083        	mov mp,a
 140  0007  0F00        	mov a,0
 140  0008  1300     E  	adc a,rc
 140  0009  0084        	mov sbp,a
 140  000A  2000     E  	call _Crom2Prom
 140  000B  0080     R  	mov _SimpleFIFO_RX_Process_2[2],a
 140  000C  1E00     R  	snz _SimpleFIFO_RX_Process_2[2]
 140  000D  2800     R  	jmp _L18
 140  000E              #line 140 "c:\users\user\documents\htk_project\3652_adc_test_vib_1\RF_API.c"
 140  000E  1700     R  	sdza _SimpleFIFO_RX_Process_2[2]
 140  000F  2800     R  	jmp _L16
 140  0010  2800     R  	jmp _L32
 140  0011              _L18:
 143  0011              #line 143 "c:\users\user\documents\htk_project\3652_adc_test_vib_1\RF_API.c"
 143  0011  0F06        	mov a,6
 143  0012  0300     E  	add a,rb
 143  0013  0083        	mov mp,a
 143  0014  0F00        	mov a,0
 143  0015  1300     E  	adc a,rc
 143  0016  0084        	mov sbp,a
 143  0017  0F00        	mov a,0
 143  0018  0082        	mov ir,a
 144  0019              #line 144 "c:\users\user\documents\htk_project\3652_adc_test_vib_1\RF_API.c"
 144  0019  0F0C        	mov a,12
 144  001A  2000     E  	call _SpiWriteStrobeCMD
 145  001B              #line 145 "c:\users\user\documents\htk_project\3652_adc_test_vib_1\RF_API.c"
"File: RF_API.c      Assembler  Version HGASM0202      Page 10

 145  001B  0700     R  	mov a,_SimpleFIFO_RX_Process_2[0]
 145  001C  0083        	mov mp,a
 145  001D  0700     R  	mov a,_SimpleFIFO_RX_Process_2[1]
 145  001E  0084        	mov sbp,a
 145  001F  0F02        	mov a,2
 145  0020  0082        	mov ir,a
 148  0021              #line 148 "c:\users\user\documents\htk_project\3652_adc_test_vib_1\RF_API.c"
 148  0021  0F12        	mov a,18
 148  0022  0080     E  	mov _SpiWriteRegCMD_2[0],a
 148  0023  0F03        	mov a,3
 148  0024  2000     E  	call _SpiWriteRegCMD
 150  0025              #line 150 "c:\users\user\documents\htk_project\3652_adc_test_vib_1\RF_API.c"
 150  0025  0F20        	mov a,32
 150  0026  2000     E  	call _SpiWriteStrobeCMD
 151  0027              #line 151 "c:\users\user\documents\htk_project\3652_adc_test_vib_1\RF_API.c"
 151  0027  0F89        	mov a,137
 151  0028  2000     E  	call _SpiWriteStrobeCMD
 152  0029              #line 152 "c:\users\user\documents\htk_project\3652_adc_test_vib_1\RF_API.c"
 152  0029  0F11        	mov a,17
 152  002A  0300     R  	add a,_SimpleFIFO_RX_Process_2[0]
 152  002B  0083        	mov mp,a
 152  002C  0F00        	mov a,0
 152  002D  1300     R  	adc a,_SimpleFIFO_RX_Process_2[1]
 152  002E  0084        	mov sbp,a
 152  002F  2000     E  	call _Crom2Prom
 152  0030  0080     E  	mov _SpiWriteRegCMD_2[0],a
 152  0031  0F10        	mov a,16
 152  0032  2000     E  	call _SpiWriteRegCMD
 154  0033              #line 154 "c:\users\user\documents\htk_project\3652_adc_test_vib_1\RF_API.c"
 154  0033  0F8E        	mov a,142
 154  0034  2000     E  	call _SpiWriteStrobeCMD
 155  0035              #line 155 "c:\users\user\documents\htk_project\3652_adc_test_vib_1\RF_API.c"
 155  0035  0700     R  	mov a,_SimpleFIFO_RX_Process_2[0]
 155  0036  0083        	mov mp,a
 155  0037  0700     R  	mov a,_SimpleFIFO_RX_Process_2[1]
 155  0038  0084        	mov sbp,a
 155  0039  0F05        	mov a,5
 155  003A  0082        	mov ir,a
 157  003B              #line 157 "c:\users\user\documents\htk_project\3652_adc_test_vib_1\RF_API.c"
 157  003B  0F01        	mov a,1
 157  003C  0300     R  	add a,_SimpleFIFO_RX_Process_2[0]
 157  003D  0083        	mov mp,a
 157  003E  0F00        	mov a,0
 157  003F  1300     R  	adc a,_SimpleFIFO_RX_Process_2[1]
 157  0040  0084        	mov sbp,a
 157  0041  2000     E  	call _Crom2Prom
 157  0042  0080     R  	mov _SimpleFIFO_RX_Process_2[2],a
 157  0043  1400     R  	inca _SimpleFIFO_RX_Process_2[2]
 157  0044  0080     E  	mov ra,a
 157  0045  0700     E  	mov a,ra
 157  0046  0082        	mov ir,a
 158  0047              #line 158 "c:\users\user\documents\htk_project\3652_adc_test_vib_1\RF_API.c"
 158  0047  2800     R  	jmp _L16
 158  0048              _L32:
 161  0048              #line 161 "c:\users\user\documents\htk_project\3652_adc_test_vib_1\RF_API.c"
 161  0048  3C94        	sz [20].1
 161  0049  2800     R  	jmp _L20
 163  004A              #line 163 "c:\users\user\documents\htk_project\3652_adc_test_vib_1\RF_API.c"
 163  004A  0F04        	mov a,4
 163  004B  2000     E  	call _SpiReadRegCMD
"File: RF_API.c      Assembler  Version HGASM0202      Page 11

 163  004C  0080     E  	mov ra,a
 163  004D  0F06        	mov a,6
 163  004E  0300     R  	add a,_SimpleFIFO_RX_Process_2[0]
 163  004F  0083        	mov mp,a
 163  0050  0F00        	mov a,0
 163  0051  1300     R  	adc a,_SimpleFIFO_RX_Process_2[1]
 163  0052  0084        	mov sbp,a
 163  0053  0700     E  	mov a,ra
 163  0054  0082        	mov ir,a
 163  0055              _L20:
 165  0055              #line 165 "c:\users\user\documents\htk_project\3652_adc_test_vib_1\RF_API.c"
 165  0055  0700     R  	mov a,_SimpleFIFO_RX_Process_2[0]
 165  0056  0080     E  	mov rb,a
 165  0057  0700     R  	mov a,_SimpleFIFO_RX_Process_2[1]
 165  0058  0080     E  	mov rc,a
 165  0059  0F06        	mov a,6
 165  005A  0300     E  	add a,rb
 165  005B  0083        	mov mp,a
 165  005C  0F00        	mov a,0
 165  005D  1300     E  	adc a,rc
 165  005E  0084        	mov sbp,a
 165  005F  2000     E  	call _Crom2Prom
 165  0060  0080     E  	mov ra,a
 165  0061  0700     E  	mov a,ra
 165  0062  0E12        	and a,18
 165  0063  0080     E  	mov rd,a
 165  0064  1E00     E  	snz rd
 165  0065  2800     R  	jmp _L21
 167  0066              #line 167 "c:\users\user\documents\htk_project\3652_adc_test_vib_1\RF_API.c"
 167  0066  3800     E  	snz ra.1
 167  0067  2800     R  	jmp _L22
 169  0068              #line 169 "c:\users\user\documents\htk_project\3652_adc_test_vib_1\RF_API.c"
 169  0068  0F17        	mov a,23
 169  0069  0300     E  	add a,rb
 169  006A  0083        	mov mp,a
 169  006B  0F00        	mov a,0
 169  006C  1300     E  	adc a,rc
 169  006D  0084        	mov sbp,a
 169  006E  0F01        	mov a,1
 169  006F  0082        	mov ir,a
 170  0070              #line 170 "c:\users\user\documents\htk_project\3652_adc_test_vib_1\RF_API.c"
 170  0070  0F10        	mov a,16
 170  0071  2000     E  	call _SpiReadRegCMD
 170  0072  0080     E  	mov ra,a
 170  0073  0700     E  	mov a,ra
 170  0074  0080     E  	mov rb,a
 170  0075  1F00     E  	clr rc
 170  0076  0F13        	mov a,19
 170  0077  0300     R  	add a,_SimpleFIFO_RX_Process_2[0]
 170  0078  0083        	mov mp,a
 170  0079  0F00        	mov a,0
 170  007A  1300     R  	adc a,_SimpleFIFO_RX_Process_2[1]
 170  007B  0084        	mov sbp,a
 170  007C  0700     E  	mov a,rb
 170  007D  0082        	mov ir,a
 170  007E  1483        	inc mp
 170  007F  0700     E  	mov a,rc
 170  0080  0082        	mov ir,a
 171  0081              #line 171 "c:\users\user\documents\htk_project\3652_adc_test_vib_1\RF_API.c"
 171  0081  0F15        	mov a,21
"File: RF_API.c      Assembler  Version HGASM0202      Page 12

 171  0082  0300     R  	add a,_SimpleFIFO_RX_Process_2[0]
 171  0083  0083        	mov mp,a
 171  0084  0F00        	mov a,0
 171  0085  1300     R  	adc a,_SimpleFIFO_RX_Process_2[1]
 171  0086  0084        	mov sbp,a
 171  0087  2000     E  	call _Crom2Prom
 171  0088  0080     E  	mov _RFReadBuf2_2[1],a
 171  0089  2000     E  	call _Crom2PromNext
 171  008A  0080     E  	mov _RFReadBuf2_2[2],a
 171  008B  0700     E  	mov a,ra
 171  008C  0080     E  	mov _RFReadBuf2_2[0],a
 171  008D  0F91        	mov a,145
 171  008E  2000     E  	call _RFReadBuf2
 171  008F              _L22:
 173  008F              #line 173 "c:\users\user\documents\htk_project\3652_adc_test_vib_1\RF_API.c"
 173  008F  0F12        	mov a,18
 173  0090  0080     E  	mov _SpiWriteRegCMD_2[0],a
 173  0091  0F04        	mov a,4
 173  0092  2000     E  	call _SpiWriteRegCMD
 178  0093              #line 178 "c:\users\user\documents\htk_project\3652_adc_test_vib_1\RF_API.c"
 178  0093  0700     R  	mov a,_SimpleFIFO_RX_Process_2[0]
 178  0094  0083        	mov mp,a
 178  0095  0700     R  	mov a,_SimpleFIFO_RX_Process_2[1]
 178  0096  0084        	mov sbp,a
 178  0097  0F05        	mov a,5
 178  0098  0082        	mov ir,a
 179  0099              #line 179 "c:\users\user\documents\htk_project\3652_adc_test_vib_1\RF_API.c"
 179  0099  0F0C        	mov a,12
 179  009A  2000     E  	call _SpiWriteStrobeCMD
 180  009B              #line 180 "c:\users\user\documents\htk_project\3652_adc_test_vib_1\RF_API.c"
 180  009B  0F06        	mov a,6
 180  009C  0300     R  	add a,_SimpleFIFO_RX_Process_2[0]
 180  009D  0083        	mov mp,a
 180  009E  0F00        	mov a,0
 180  009F  1300     R  	adc a,_SimpleFIFO_RX_Process_2[1]
 180  00A0  0084        	mov sbp,a
 180  00A1  2000     E  	call _Crom2Prom
 180  00A2  0080     R  	mov _SimpleFIFO_RX_Process_2[2],a
 180  00A3  0700     R  	mov a,_SimpleFIFO_RX_Process_2[2]
 180  00A4  0EED        	and a,237
 180  00A5  0080     E  	mov ra,a
 180  00A6  0700     E  	mov a,ra
 180  00A7  0082        	mov ir,a
 181  00A8              #line 181 "c:\users\user\documents\htk_project\3652_adc_test_vib_1\RF_API.c"
 181  00A8  0F01        	mov a,1
 181  00A9  0300     R  	add a,_SimpleFIFO_RX_Process_2[0]
 181  00AA  0083        	mov mp,a
 181  00AB  0F00        	mov a,0
 181  00AC  1300     R  	adc a,_SimpleFIFO_RX_Process_2[1]
 181  00AD  0084        	mov sbp,a
 181  00AE  0F00        	mov a,0
 181  00AF  0082        	mov ir,a
 181  00B0              _L21:
 183  00B0              #line 183 "c:\users\user\documents\htk_project\3652_adc_test_vib_1\RF_API.c"
 183  00B0  0F06        	mov a,6
 183  00B1  0300     R  	add a,_SimpleFIFO_RX_Process_2[0]
 183  00B2  0083        	mov mp,a
 183  00B3  0F00        	mov a,0
 183  00B4  1300     R  	adc a,_SimpleFIFO_RX_Process_2[1]
 183  00B5  0084        	mov sbp,a
"File: RF_API.c      Assembler  Version HGASM0202      Page 13

 183  00B6  2000     E  	call _Crom2Prom
 183  00B7  0080     E  	mov ra,a
 183  00B8  1E00     E  	snz ra
 183  00B9  2800     R  	jmp _L16
 185  00BA              #line 185 "c:\users\user\documents\htk_project\3652_adc_test_vib_1\RF_API.c"
 185  00BA  0700     E  	mov a,ra
 185  00BB  0080     E  	mov _SpiWriteRegCMD_2[0],a
 185  00BC  0F04        	mov a,4
 185  00BD  2000     E  	call _SpiWriteRegCMD
 186  00BE              #line 186 "c:\users\user\documents\htk_project\3652_adc_test_vib_1\RF_API.c"
 186  00BE  0F06        	mov a,6
 186  00BF  0300     R  	add a,_SimpleFIFO_RX_Process_2[0]
 186  00C0  0083        	mov mp,a
 186  00C1  0F00        	mov a,0
 186  00C2  1300     R  	adc a,_SimpleFIFO_RX_Process_2[1]
 186  00C3  0084        	mov sbp,a
 186  00C4  0F00        	mov a,0
 186  00C5  0082        	mov ir,a
 186  00C6              _L16:
 186  00C6  0003        	ret
 186  00C7              _SimpleFIFO_RX_Process endp
 186  00C7              #line 186 "c:\users\user\documents\htk_project\3652_adc_test_vib_1\RF_API.c"
 186  00C7              #pragma debug scope 1 1
 186  00C7              public _margin_len
 186  0000              @crom	.section 'crom'
  14  0000              #line 14 "c:\users\user\documents\htk_project\3652_adc_test_vib_1\RF_API.c"
  14  0000              @crom	.section	'crom'
  14  0000              _margin_len:
  14  0000              #pragma debug array 46 8 4 1
  14  0000              #pragma debug array 46 8 4 1
  14  0000              #pragma debug variable 46 1 _margin_len "margin_len"
  14  0000              	db 4
  14  0001              	db 8
  14  0001              	db 16
  14  0002              	db 32
  13  0002              #line 13 "c:\users\user\documents\htk_project\3652_adc_test_vib_1\RF_API.c"
  13  0002              public _syncword
  13  0000              @HCCINIT0_syncword .section 'data'
  13  0000  0004[       _syncword	db 4 dup(0)
            00
            ]
  13  0004              #pragma debug variable 46 1 _syncword "syncword"
  13  0004              
  13  0000              @HCCINIT .section 'data'
  12  0000              #line 12 "c:\users\user\documents\htk_project\3652_adc_test_vib_1\RF_API.c"
  12  0000              public _Resent_Count
  12  0000              @HCCINIT0_Resent_Count .section 'data'
  12  0000  0002[       _Resent_Count	db 2 dup(0)
            00
            ]
  12  0002              #pragma debug variable 12 1 _Resent_Count "Resent_Count"
  12  0002              
  12  0000              @HCCINIT .section 'data'
  10  0000              #line 10 "c:\users\user\documents\htk_project\3652_adc_test_vib_1\RF_API.c"
  10  0000              public _BC3602_T
  10  0000              @HCCINIT0_BC3602_T .section 'data'
  10  0000  0019[       _BC3602_T	db 25 dup(0)
            00
            ]
  10  0019              #pragma debug struct_end
"File: RF_API.c      Assembler  Version HGASM0202      Page 14

  10  0019              #pragma debug struct_end
  10  0019              #pragma debug variable 47 1 _BC3602_T "BC3602_T"
  10  0019              
  10  0000              @HCCINIT .section 'data'
  10  0000              #pragma debug struct_end
  10  0000              #pragma debug struct_end
  10  0000              #pragma debug union_end
  10  0000              #pragma debug union_end
  10  0000              #pragma debug variable 49 1 ___pa "__pa" 1
  10  0000              
  10  0000              ; output external variables
  10  0000              extern _RF_RXFIFO:byte
  10  0000              extern _RF_TXFIFO:byte
  10  0000              extern _SpiWriteStrobeCMD:near
  10  0000              extern _RFReadBuf2_2:byte
  10  0000              extern _RFReadBuf2:near
  10  0000              extern _SpiReadRegCMD:near
  10  0000              extern _SpiWriteRegCMD_2:byte
  10  0000              extern _SpiWriteRegCMD:near
  10  0000              extern _RFWriteBuf2_2:byte
  10  0000              extern _RFWriteBuf2:near
  10  0000              
  10  0000              ; 
  10  0000              ; Generated by holtek-gcc v3.19, Fri May 27 15:24:09 2022
  10  0000              ; Rebuild 718
  10  0000              ; end of file


        0 Errors, 0