"File: UI.c          Assembler  Version HGASM0202      Page 1


   1  0000              ; Generated by holtek-gcc v3.19, Fri May 20 16:36:40 2022
   2  0000              ; 
   3  0000              ; Configuration:
   4  0000              ;       with long instruction
   5  0000              ;       Single ROM, Multi-RAM
   6  0000              ;       bits_per_rom_unit:16
   7  0000              ;       with mp1
   8  0000              ;       with tbhp, address(0x9)
   9  0000              ;          Use tabrd-const
  10  0000              ;       
  11  0000              ; SFR address of long-instruction arch:
  12  0000              ;    mp0 = -1,1,0
  13  0000              ;    mp1 = 4,3,2
  14  0000              ;    mp2 = 14,13,12
  15  0000              ;    tbp = 9,7,8
  16  0000              ;    acc = 5
  17  0000              ;    pcl = 6
  18  0000              ;    status = 10
  19  0000              ;    bp = 11
  20  0000              ;    intc = 17
  21  0000              ;       
  22  0000              ;       
  23  0000              ; use 'tabrdc' instead of 'tabrd'
  24  0000              ;       
  25  0000              
  26  0000              #pragma translator "holtek-gcc 4.6.4" "3.19" "build 20130711"
  27  0000              ; Rebuild 718
  28  0000              
  29  0000              ir equ [2]
  30  0000              mp equ [3]
  31  0000              sbp equ [4]
  32  0000              acc equ [5]
  33  0000              bp equ [11]
  34  0000              tblp equ [7]
  35  0000              tbhp equ [9]
  36  0000              status equ [10]
  37  0000              c equ [10].0
  38  0000              ac equ [10].1
  39  0000              z equ [10].2
  40  0000              ov equ [10].3
  41  0000              cz equ [10].6
  42  0000              sc equ [10].7
  43  0000              intc equ [17]
  44  0000              
  45  0000              extern ra:byte
  46  0000              extern rb:byte
  47  0000              extern rc:byte
  48  0000              extern rd:byte
  49  0000              extern re:byte
  50  0000              extern rf:byte
  51  0000              extern rg:byte
  52  0000              extern rh:byte
  53  0000              extern _Crom2Prom:near
  54  0000              extern _Crom2PromNext:near
  55  0000              
  56  0000              RAMBANK 0 @BITDATASEC, @BITDATASEC1
  57  0000              @HCCINIT	.section 'data'
  58  0000              @HCCINIT0	.section 'data'
  59  0000              @BITDATASEC	 .section 'data'
"File: UI.ASM        Assembler  Version HGASM0202      Page 2

  60  0000              @BITDATASEC1	 .section 'data'
  61  0000              
  62  0000              #pragma debug scope 1 1
  63  0000              	extern __DELAY3:near
  64  0000              	extern __DELAYX3:near
  65  0000              	extern __DELAYX6:near
  66  0000              	extern __DELAYY5:near
  67  0000              	extern __DELAYY3:near
  68  0000              	extern _builtin_holtek_delay_2:byte
  69  0000              public _PER_MASTER_Display
  70  0000              #pragma debug scope 2 1

  16  0000              #line 16 "C:\Users\user\Documents\HTK_Project\3652_adc_test_2\UI.c"
  16  0000              _PER_MASTER_Display .section 'code'
  16  0000              _PER_MASTER_Display proc
  17  0000              #line 17 "C:\Users\user\Documents\HTK_Project\3652_adc_test_2\UI.c"
  17  0000  1F00     E  	clr _LCM_Display6x8_2[3]
  17  0001  0F00     R  	mov a,low offset _PERMODE
  17  0002  0080     E  	mov _LCM_Display6x8_2[1],a
  17  0003  0F00     R  	mov a,high offset _PERMODE
  17  0004  0080     E  	mov _LCM_Display6x8_2[2],a
  17  0005  1F00     E  	clr _LCM_Display6x8_2[0]
  17  0006  0F00        	mov a,0
  17  0007  2000     E  	call _LCM_Display6x8
  18  0008              #line 18 "C:\Users\user\Documents\HTK_Project\3652_adc_test_2\UI.c"
  18  0008  1F00     E  	clr _LCM_Display6x8_2[3]
  18  0009  0F00     R  	mov a,low offset _PERMASTER
  18  000A  0080     E  	mov _LCM_Display6x8_2[1],a
  18  000B  0F00     R  	mov a,high offset _PERMASTER
  18  000C  0080     E  	mov _LCM_Display6x8_2[2],a
  18  000D  0F09        	mov a,9
  18  000E  0080     E  	mov _LCM_Display6x8_2[0],a
  18  000F  0F01        	mov a,1
  18  0010  2000     E  	call _LCM_Display6x8
  20  0011              #line 20 "C:\Users\user\Documents\HTK_Project\3652_adc_test_2\UI.c"
  20  0011  1F00     E  	clr _LCM_Display6x8_2[3]
  20  0012  0F00     R  	mov a,low offset _Fre
  20  0013  0080     E  	mov _LCM_Display6x8_2[1],a
  20  0014  0F00     R  	mov a,high offset _Fre
  20  0015  0080     E  	mov _LCM_Display6x8_2[2],a
  20  0016  1F00     E  	clr _LCM_Display6x8_2[0]
  20  0017  0F03        	mov a,3
  20  0018  2000     E  	call _LCM_Display6x8
  21  0019              #line 21 "C:\Users\user\Documents\HTK_Project\3652_adc_test_2\UI.c"
  21  0019  1F00     E  	clr _LCM_Display6x8_2[3]
  21  001A  0F00     R  	mov a,low offset _TXCOUNT
  21  001B  0080     E  	mov _LCM_Display6x8_2[1],a
  21  001C  0F00     R  	mov a,high offset _TXCOUNT
  21  001D  0080     E  	mov _LCM_Display6x8_2[2],a
  21  001E  1F00     E  	clr _LCM_Display6x8_2[0]
  21  001F  0F04        	mov a,4
  21  0020  2000     E  	call _LCM_Display6x8
  22  0021              #line 22 "C:\Users\user\Documents\HTK_Project\3652_adc_test_2\UI.c"
  22  0021  1F00     E  	clr _LCM_Display6x8_2[3]
  22  0022  0F00     R  	mov a,low offset _Interval
  22  0023  0080     E  	mov _LCM_Display6x8_2[1],a
  22  0024  0F00     R  	mov a,high offset _Interval
  22  0025  0080     E  	mov _LCM_Display6x8_2[2],a
  22  0026  0F08        	mov a,8
  22  0027  0080     E  	mov _LCM_Display6x8_2[0],a
"File: UI.c          Assembler  Version HGASM0202      Page 3

  22  0028  0F04        	mov a,4
  22  0029  2000     E  	call _LCM_Display6x8
  23  002A              #line 23 "C:\Users\user\Documents\HTK_Project\3652_adc_test_2\UI.c"
  23  002A  1F00     E  	clr _LCM_Display6x8_2[3]
  23  002B  0F00     R  	mov a,low offset _RXCOUNT
  23  002C  0080     E  	mov _LCM_Display6x8_2[1],a
  23  002D  0F00     R  	mov a,high offset _RXCOUNT
  23  002E  0080     E  	mov _LCM_Display6x8_2[2],a
  23  002F  0F0B        	mov a,11
  23  0030  0080     E  	mov _LCM_Display6x8_2[0],a
  23  0031  0F04        	mov a,4
  23  0032  2000     E  	call _LCM_Display6x8
  24  0033              #line 24 "C:\Users\user\Documents\HTK_Project\3652_adc_test_2\UI.c"
  24  0033  1F00     E  	clr _LCM_Display6x8_2[3]
  24  0034  0F00     R  	mov a,low offset _ErCOUNT
  24  0035  0080     E  	mov _LCM_Display6x8_2[1],a
  24  0036  0F00     R  	mov a,high offset _ErCOUNT
  24  0037  0080     E  	mov _LCM_Display6x8_2[2],a
  24  0038  1F00     E  	clr _LCM_Display6x8_2[0]
  24  0039  0F05        	mov a,5
  24  003A  2000     E  	call _LCM_Display6x8
  26  003B              #line 26 "C:\Users\user\Documents\HTK_Project\3652_adc_test_2\UI.c"
  26  003B  1F00     E  	clr _LCM_Display6x8_2[3]
  26  003C  0F00     R  	mov a,low offset _rcvRSSINUM
  26  003D  0080     E  	mov _LCM_Display6x8_2[1],a
  26  003E  0F00     R  	mov a,high offset _rcvRSSINUM
  26  003F  0080     E  	mov _LCM_Display6x8_2[2],a
  26  0040  1F00     E  	clr _LCM_Display6x8_2[0]
  26  0041  0F07        	mov a,7
  26  0042  2000     E  	call _LCM_Display6x8
  27  0043              #line 27 "C:\Users\user\Documents\HTK_Project\3652_adc_test_2\UI.c"
  27  0043  0F01        	mov a,1
  27  0044  0080     E  	mov _LCM_Display6x8_2[3],a
  27  0045  0F00     E  	mov a,low offset _OFFDIS
  27  0046  0080     E  	mov _LCM_Display6x8_2[1],a
  27  0047  0F00     E  	mov a,high offset _OFFDIS
  27  0048  0080     E  	mov _LCM_Display6x8_2[2],a
  27  0049  0F10        	mov a,16
  27  004A  0080     E  	mov _LCM_Display6x8_2[0],a
  27  004B  0F07        	mov a,7
  27  004C  2000     E  	call _LCM_Display6x8
  27  004D  0003        	ret
  27  004E              _PER_MASTER_Display endp
  27  004E              #line 27 "C:\Users\user\Documents\HTK_Project\3652_adc_test_2\UI.c"
  27  004E              #pragma debug scope 1 1
  27  004E              public _PER_SLAVER_Display
  27  004E              #pragma debug scope 3 1
  31  004E              #line 31 "C:\Users\user\Documents\HTK_Project\3652_adc_test_2\UI.c"
  31  0000              _PER_SLAVER_Display .section 'code'
  31  0000              _PER_SLAVER_Display proc
  32  0000              #line 32 "C:\Users\user\Documents\HTK_Project\3652_adc_test_2\UI.c"
  32  0000  1F00     E  	clr _LCM_Display6x8_2[3]
  32  0001  0F00     R  	mov a,low offset _PERMODE
  32  0002  0080     E  	mov _LCM_Display6x8_2[1],a
  32  0003  0F00     R  	mov a,high offset _PERMODE
  32  0004  0080     E  	mov _LCM_Display6x8_2[2],a
  32  0005  1F00     E  	clr _LCM_Display6x8_2[0]
  32  0006  0F00        	mov a,0
  32  0007  2000     E  	call _LCM_Display6x8
  33  0008              #line 33 "C:\Users\user\Documents\HTK_Project\3652_adc_test_2\UI.c"
"File: UI.c          Assembler  Version HGASM0202      Page 4

  33  0008  1F00     E  	clr _LCM_Display6x8_2[3]
  33  0009  0F00     R  	mov a,low offset _PERSLAVER
  33  000A  0080     E  	mov _LCM_Display6x8_2[1],a
  33  000B  0F00     R  	mov a,high offset _PERSLAVER
  33  000C  0080     E  	mov _LCM_Display6x8_2[2],a
  33  000D  0F09        	mov a,9
  33  000E  0080     E  	mov _LCM_Display6x8_2[0],a
  33  000F  0F01        	mov a,1
  33  0010  2000     E  	call _LCM_Display6x8
  35  0011              #line 35 "C:\Users\user\Documents\HTK_Project\3652_adc_test_2\UI.c"
  35  0011  1F00     E  	clr _LCM_Display6x8_2[3]
  35  0012  0F00     R  	mov a,low offset _Fre
  35  0013  0080     E  	mov _LCM_Display6x8_2[1],a
  35  0014  0F00     R  	mov a,high offset _Fre
  35  0015  0080     E  	mov _LCM_Display6x8_2[2],a
  35  0016  1F00     E  	clr _LCM_Display6x8_2[0]
  35  0017  0F03        	mov a,3
  35  0018  2000     E  	call _LCM_Display6x8
  36  0019              #line 36 "C:\Users\user\Documents\HTK_Project\3652_adc_test_2\UI.c"
  36  0019  1F00     E  	clr _LCM_Display6x8_2[3]
  36  001A  0F00     R  	mov a,low offset _TXCOUNT
  36  001B  0080     E  	mov _LCM_Display6x8_2[1],a
  36  001C  0F00     R  	mov a,high offset _TXCOUNT
  36  001D  0080     E  	mov _LCM_Display6x8_2[2],a
  36  001E  1F00     E  	clr _LCM_Display6x8_2[0]
  36  001F  0F04        	mov a,4
  36  0020  2000     E  	call _LCM_Display6x8
  37  0021              #line 37 "C:\Users\user\Documents\HTK_Project\3652_adc_test_2\UI.c"
  37  0021  1F00     E  	clr _LCM_Display6x8_2[3]
  37  0022  0F00     R  	mov a,low offset _Interval
  37  0023  0080     E  	mov _LCM_Display6x8_2[1],a
  37  0024  0F00     R  	mov a,high offset _Interval
  37  0025  0080     E  	mov _LCM_Display6x8_2[2],a
  37  0026  0F08        	mov a,8
  37  0027  0080     E  	mov _LCM_Display6x8_2[0],a
  37  0028  0F04        	mov a,4
  37  0029  2000     E  	call _LCM_Display6x8
  38  002A              #line 38 "C:\Users\user\Documents\HTK_Project\3652_adc_test_2\UI.c"
  38  002A  1F00     E  	clr _LCM_Display6x8_2[3]
  38  002B  0F00     R  	mov a,low offset _RXCOUNT
  38  002C  0080     E  	mov _LCM_Display6x8_2[1],a
  38  002D  0F00     R  	mov a,high offset _RXCOUNT
  38  002E  0080     E  	mov _LCM_Display6x8_2[2],a
  38  002F  0F0B        	mov a,11
  38  0030  0080     E  	mov _LCM_Display6x8_2[0],a
  38  0031  0F04        	mov a,4
  38  0032  2000     E  	call _LCM_Display6x8
  39  0033              #line 39 "C:\Users\user\Documents\HTK_Project\3652_adc_test_2\UI.c"
  39  0033  1F00     E  	clr _LCM_Display6x8_2[3]
  39  0034  0F00     R  	mov a,low offset _ErCOUNT
  39  0035  0080     E  	mov _LCM_Display6x8_2[1],a
  39  0036  0F00     R  	mov a,high offset _ErCOUNT
  39  0037  0080     E  	mov _LCM_Display6x8_2[2],a
  39  0038  1F00     E  	clr _LCM_Display6x8_2[0]
  39  0039  0F05        	mov a,5
  39  003A  2000     E  	call _LCM_Display6x8
  41  003B              #line 41 "C:\Users\user\Documents\HTK_Project\3652_adc_test_2\UI.c"
  41  003B  1F00     E  	clr _LCM_Display6x8_2[3]
  41  003C  0F00     R  	mov a,low offset _rcvRSSINUM
  41  003D  0080     E  	mov _LCM_Display6x8_2[1],a
"File: UI.c          Assembler  Version HGASM0202      Page 5

  41  003E  0F00     R  	mov a,high offset _rcvRSSINUM
  41  003F  0080     E  	mov _LCM_Display6x8_2[2],a
  41  0040  1F00     E  	clr _LCM_Display6x8_2[0]
  41  0041  0F07        	mov a,7
  41  0042  2000     E  	call _LCM_Display6x8
  42  0043              #line 42 "C:\Users\user\Documents\HTK_Project\3652_adc_test_2\UI.c"
  42  0043  0F01        	mov a,1
  42  0044  0080     E  	mov _LCM_Display6x8_2[3],a
  42  0045  0F00     E  	mov a,low offset _OFFDIS
  42  0046  0080     E  	mov _LCM_Display6x8_2[1],a
  42  0047  0F00     E  	mov a,high offset _OFFDIS
  42  0048  0080     E  	mov _LCM_Display6x8_2[2],a
  42  0049  0F10        	mov a,16
  42  004A  0080     E  	mov _LCM_Display6x8_2[0],a
  42  004B  0F07        	mov a,7
  42  004C  2000     E  	call _LCM_Display6x8
  42  004D  0003        	ret
  42  004E              _PER_SLAVER_Display endp
  42  004E              #line 42 "C:\Users\user\Documents\HTK_Project\3652_adc_test_2\UI.c"
  42  004E              #pragma debug scope 1 1
  42  004E              public _update_TX_count
  42  004E              #pragma debug scope 4 1
  46  004E              #line 46 "C:\Users\user\Documents\HTK_Project\3652_adc_test_2\UI.c"
  46  0000              _update_TX_count .section 'code'
  46  0000              _update_TX_count proc
  46  0000              public _update_TX_count_2
  46  0000  0007[           local _update_TX_count_2 db 7 dup(?)	; 2,5
            00
            ]
  46  0007              #pragma debug variable 12 4 _update_TX_count_2+0 "txcount"
  46  0007              #pragma debug variable 8 4 _update_TX_count_2+6 "d"
  49  0007              #line 49 "C:\Users\user\Documents\HTK_Project\3652_adc_test_2\UI.c"
  49  0000  1F00     E  	clr _builtin_holtek_udivmodhi4_2[6]
  49  0001  0700     R  	mov a,_update_TX_count_2[0]  
  49  0002  0080     E  	mov _builtin_holtek_udivmodhi4_2[0],a  
  49  0003  0700     R  	mov a,_update_TX_count_2[1]  
  49  0004  0080     E  	mov _builtin_holtek_udivmodhi4_2[1],a
  49  0005  0FE8        	mov a,232  
  49  0006  0080     E  	mov _builtin_holtek_udivmodhi4_2[2],a  
  49  0007  0F03        	mov a,3  
  49  0008  0080     E  	mov _builtin_holtek_udivmodhi4_2[3],a
  49  0009  2000     E  	call _builtin_holtek_udivmodhi4
  49  000A  0700     E  	mov a,_builtin_holtek_udivmodhi4_2[0]  
  49  000B  0080     E  	mov rb,a  
  49  000C  0700     E  	mov a,_builtin_holtek_udivmodhi4_2[1]  
  49  000D  0080     E  	mov rc,a
  50  000E              #line 50 "C:\Users\user\Documents\HTK_Project\3652_adc_test_2\UI.c"
  50  000E  0700     E  	mov a,rb  
  50  000F  0080     E  	mov _builtin_holtek_mulhi3_2[0],a  
  50  0010  0700     E  	mov a,rc  
  50  0011  0080     E  	mov _builtin_holtek_mulhi3_2[1],a
  50  0012  0F18        	mov a,24  
  50  0013  0080     E  	mov _builtin_holtek_mulhi3_2[2],a  
  50  0014  0FFC        	mov a,252  
  50  0015  0080     E  	mov _builtin_holtek_mulhi3_2[3],a
  50  0016  2000     E  	call _builtin_holtek_mulhi3
  50  0017  0700     E  	mov a,_builtin_holtek_mulhi3_2[4]  
  50  0018  0080     E  	mov rd,a  
  50  0019  0700     E  	mov a,_builtin_holtek_mulhi3_2[5]  
  50  001A  0080     E  	mov re,a
"File: UI.c          Assembler  Version HGASM0202      Page 6

  50  001B  0700     R  	mov a,_update_TX_count_2[0]
  50  001C  0380     E  	addm a,rd
  50  001D  0700     R  	mov a,_update_TX_count_2[1]
  50  001E  1380     E  	adcm a,re
  50  001F  1F00     E  	clr _builtin_holtek_udivmodhi4_2[6]
  50  0020  0700     E  	mov a,rd  
  50  0021  0080     E  	mov _builtin_holtek_udivmodhi4_2[0],a  
  50  0022  0700     E  	mov a,re  
  50  0023  0080     E  	mov _builtin_holtek_udivmodhi4_2[1],a
  50  0024  0F64        	mov a,100  
  50  0025  0080     E  	mov _builtin_holtek_udivmodhi4_2[2],a  
  50  0026  1F00     E  	clr _builtin_holtek_udivmodhi4_2[3]
  50  0027  2000     E  	call _builtin_holtek_udivmodhi4
  50  0028  0700     E  	mov a,_builtin_holtek_udivmodhi4_2[0]  
  50  0029  0080     R  	mov _update_TX_count_2[4],a  
  50  002A  0700     E  	mov a,_builtin_holtek_udivmodhi4_2[1]  
  50  002B  0080     R  	mov _update_TX_count_2[5],a
  51  002C              #line 51 "C:\Users\user\Documents\HTK_Project\3652_adc_test_2\UI.c"
  51  002C  0700     R  	mov a,_update_TX_count_2[4]
  51  002D  0080     E  	mov _builtin_holtek_mulhi3_2[0],a
  51  002E  1F00     E  	clr _builtin_holtek_mulhi3_2[1]
  51  002F  0F9C        	mov a,156
  51  0030  0080     E  	mov _builtin_holtek_mulhi3_2[2],a
  51  0031  0FFF        	mov a,255
  51  0032  0080     E  	mov _builtin_holtek_mulhi3_2[3],a
  51  0033  2000     E  	call _builtin_holtek_mulhi3
  51  0034  0700     E  	mov a,_builtin_holtek_mulhi3_2[4]  
  51  0035  0080     E  	mov rf,a  
  51  0036  0700     E  	mov a,_builtin_holtek_mulhi3_2[5]  
  51  0037  0080     E  	mov rg,a
  51  0038  0700     E  	mov a,rf
  51  0039  0380     E  	addm a,rd
  51  003A  0700     E  	mov a,rg
  51  003B  1380     E  	adcm a,re
  51  003C  1F00     E  	clr _builtin_holtek_udivmodhi4_2[6]
  51  003D  0700     E  	mov a,rd  
  51  003E  0080     E  	mov _builtin_holtek_udivmodhi4_2[0],a  
  51  003F  0700     E  	mov a,re  
  51  0040  0080     E  	mov _builtin_holtek_udivmodhi4_2[1],a
  51  0041  0F0A        	mov a,10  
  51  0042  0080     E  	mov _builtin_holtek_udivmodhi4_2[2],a  
  51  0043  1F00     E  	clr _builtin_holtek_udivmodhi4_2[3]
  51  0044  2000     E  	call _builtin_holtek_udivmodhi4
  51  0045  0700     E  	mov a,_builtin_holtek_udivmodhi4_2[0]  
  51  0046  0080     R  	mov _update_TX_count_2[2],a  
  51  0047  0700     E  	mov a,_builtin_holtek_udivmodhi4_2[1]  
  51  0048  0080     R  	mov _update_TX_count_2[3],a
  52  0049              #line 52 "C:\Users\user\Documents\HTK_Project\3652_adc_test_2\UI.c"
  52  0049  0700     E  	mov a,rb
  52  004A  0300     E  	add a,rb
  52  004B  0080     E  	mov ra,a
  52  004C  0700     E  	mov a,rb
  52  004D  0380     E  	addm a,ra
  52  004E  1100     E  	swapa ra
  52  004F  1985        	rr acc
  52  0050  0EF8        	and a,0f8h
  52  0051  0080     E  	mov ra,a
  52  0052  0700     R  	mov a,_update_TX_count_2[0]
  52  0053  0380     E  	addm a,ra
  52  0054  0700     R  	mov a,_update_TX_count_2[4]
"File: UI.c          Assembler  Version HGASM0202      Page 7

  52  0055  0080     E  	mov _builtin_holtek_mulqi3_2[0],a
  52  0056  0F9C        	mov a,156
  52  0057  2000     E  	call _builtin_holtek_mulqi3
  52  0058  0700     E  	mov a,_builtin_holtek_mulqi3_2[1]
  52  0059  0080     E  	mov rc,a
  52  005A  0700     E  	mov a,rc
  52  005B  0380     E  	addm a,ra
  52  005C  0700     R  	mov a,_update_TX_count_2[2]
  52  005D  0300     R  	add a,_update_TX_count_2[2]
  52  005E  0080     E  	mov rc,a
  52  005F  0700     E  	mov a,rc
  52  0060  0380     E  	addm a,rc
  52  0061  0700     R  	mov a,_update_TX_count_2[2]
  52  0062  0380     E  	addm a,rc
  52  0063  0700     E  	mov a,rc
  52  0064  0380     E  	addm a,rc
  52  0065  0700     E  	mov a,ra
  52  0066  0200     E  	sub a,rc
  52  0067  0080     R  	mov _update_TX_count_2[6],a
  54  0068              #line 54 "C:\Users\user\Documents\HTK_Project\3652_adc_test_2\UI.c"
  54  0068  1F00     E  	clr _LCM_Display6x8_Num_2[2]
  54  0069  0700     E  	mov a,rb
  54  006A  0080     E  	mov _LCM_Display6x8_Num_2[1],a
  54  006B  0F03        	mov a,3
  54  006C  0080     E  	mov _LCM_Display6x8_Num_2[0],a
  54  006D  0F04        	mov a,4
  54  006E  2000     E  	call _LCM_Display6x8_Num
  55  006F              #line 55 "C:\Users\user\Documents\HTK_Project\3652_adc_test_2\UI.c"
  55  006F  1F00     E  	clr _LCM_Display6x8_Num_2[2]
  55  0070  0700     R  	mov a,_update_TX_count_2[4]
  55  0071  0080     E  	mov _LCM_Display6x8_Num_2[1],a
  55  0072  0F04        	mov a,4
  55  0073  0080     E  	mov _LCM_Display6x8_Num_2[0],a
  55  0074  0F04        	mov a,4
  55  0075  2000     E  	call _LCM_Display6x8_Num
  56  0076              #line 56 "C:\Users\user\Documents\HTK_Project\3652_adc_test_2\UI.c"
  56  0076  1F00     E  	clr _LCM_Display6x8_Num_2[2]
  56  0077  0700     R  	mov a,_update_TX_count_2[2]
  56  0078  0080     E  	mov _LCM_Display6x8_Num_2[1],a
  56  0079  0F05        	mov a,5
  56  007A  0080     E  	mov _LCM_Display6x8_Num_2[0],a
  56  007B  0F04        	mov a,4
  56  007C  2000     E  	call _LCM_Display6x8_Num
  57  007D              #line 57 "C:\Users\user\Documents\HTK_Project\3652_adc_test_2\UI.c"
  57  007D  1F00     E  	clr _LCM_Display6x8_Num_2[2]
  57  007E  0700     R  	mov a,_update_TX_count_2[6]
  57  007F  0080     E  	mov _LCM_Display6x8_Num_2[1],a
  57  0080  0F06        	mov a,6
  57  0081  0080     E  	mov _LCM_Display6x8_Num_2[0],a
  57  0082  0F04        	mov a,4
  57  0083  2000     E  	call _LCM_Display6x8_Num
  57  0084  0003        	ret
  57  0085              _update_TX_count endp
  57  0085              #line 57 "C:\Users\user\Documents\HTK_Project\3652_adc_test_2\UI.c"
  57  0085              #pragma debug scope 1 1
  57  0085              public _update_RX_count
  57  0085              #pragma debug scope 5 1
  61  0085              #line 61 "C:\Users\user\Documents\HTK_Project\3652_adc_test_2\UI.c"
  61  0000              _update_RX_count .section 'code'
  61  0000              _update_RX_count proc
"File: UI.c          Assembler  Version HGASM0202      Page 8

  61  0000              public _update_RX_count_2
  61  0000  0007[           local _update_RX_count_2 db 7 dup(?)	; 2,5
            00
            ]
  61  0007              #pragma debug variable 12 5 _update_RX_count_2+0 "rxcount"
  61  0007              #pragma debug variable 8 5 _update_RX_count_2+6 "d"
  64  0007              #line 64 "C:\Users\user\Documents\HTK_Project\3652_adc_test_2\UI.c"
  64  0000  1F00     E  	clr _builtin_holtek_udivmodhi4_2[6]
  64  0001  0700     R  	mov a,_update_RX_count_2[0]  
  64  0002  0080     E  	mov _builtin_holtek_udivmodhi4_2[0],a  
  64  0003  0700     R  	mov a,_update_RX_count_2[1]  
  64  0004  0080     E  	mov _builtin_holtek_udivmodhi4_2[1],a
  64  0005  0FE8        	mov a,232  
  64  0006  0080     E  	mov _builtin_holtek_udivmodhi4_2[2],a  
  64  0007  0F03        	mov a,3  
  64  0008  0080     E  	mov _builtin_holtek_udivmodhi4_2[3],a
  64  0009  2000     E  	call _builtin_holtek_udivmodhi4
  64  000A  0700     E  	mov a,_builtin_holtek_udivmodhi4_2[0]  
  64  000B  0080     E  	mov rb,a  
  64  000C  0700     E  	mov a,_builtin_holtek_udivmodhi4_2[1]  
  64  000D  0080     E  	mov rc,a
  65  000E              #line 65 "C:\Users\user\Documents\HTK_Project\3652_adc_test_2\UI.c"
  65  000E  0700     E  	mov a,rb  
  65  000F  0080     E  	mov _builtin_holtek_mulhi3_2[0],a  
  65  0010  0700     E  	mov a,rc  
  65  0011  0080     E  	mov _builtin_holtek_mulhi3_2[1],a
  65  0012  0F18        	mov a,24  
  65  0013  0080     E  	mov _builtin_holtek_mulhi3_2[2],a  
  65  0014  0FFC        	mov a,252  
  65  0015  0080     E  	mov _builtin_holtek_mulhi3_2[3],a
  65  0016  2000     E  	call _builtin_holtek_mulhi3
  65  0017  0700     E  	mov a,_builtin_holtek_mulhi3_2[4]  
  65  0018  0080     E  	mov rd,a  
  65  0019  0700     E  	mov a,_builtin_holtek_mulhi3_2[5]  
  65  001A  0080     E  	mov re,a
  65  001B  0700     R  	mov a,_update_RX_count_2[0]
  65  001C  0380     E  	addm a,rd
  65  001D  0700     R  	mov a,_update_RX_count_2[1]
  65  001E  1380     E  	adcm a,re
  65  001F  1F00     E  	clr _builtin_holtek_udivmodhi4_2[6]
  65  0020  0700     E  	mov a,rd  
  65  0021  0080     E  	mov _builtin_holtek_udivmodhi4_2[0],a  
  65  0022  0700     E  	mov a,re  
  65  0023  0080     E  	mov _builtin_holtek_udivmodhi4_2[1],a
  65  0024  0F64        	mov a,100  
  65  0025  0080     E  	mov _builtin_holtek_udivmodhi4_2[2],a  
  65  0026  1F00     E  	clr _builtin_holtek_udivmodhi4_2[3]
  65  0027  2000     E  	call _builtin_holtek_udivmodhi4
  65  0028  0700     E  	mov a,_builtin_holtek_udivmodhi4_2[0]  
  65  0029  0080     R  	mov _update_RX_count_2[4],a  
  65  002A  0700     E  	mov a,_builtin_holtek_udivmodhi4_2[1]  
  65  002B  0080     R  	mov _update_RX_count_2[5],a
  66  002C              #line 66 "C:\Users\user\Documents\HTK_Project\3652_adc_test_2\UI.c"
  66  002C  0700     R  	mov a,_update_RX_count_2[4]
  66  002D  0080     E  	mov _builtin_holtek_mulhi3_2[0],a
  66  002E  1F00     E  	clr _builtin_holtek_mulhi3_2[1]
  66  002F  0F9C        	mov a,156
  66  0030  0080     E  	mov _builtin_holtek_mulhi3_2[2],a
  66  0031  0FFF        	mov a,255
  66  0032  0080     E  	mov _builtin_holtek_mulhi3_2[3],a
"File: UI.c          Assembler  Version HGASM0202      Page 9

  66  0033  2000     E  	call _builtin_holtek_mulhi3
  66  0034  0700     E  	mov a,_builtin_holtek_mulhi3_2[4]  
  66  0035  0080     E  	mov rf,a  
  66  0036  0700     E  	mov a,_builtin_holtek_mulhi3_2[5]  
  66  0037  0080     E  	mov rg,a
  66  0038  0700     E  	mov a,rf
  66  0039  0380     E  	addm a,rd
  66  003A  0700     E  	mov a,rg
  66  003B  1380     E  	adcm a,re
  66  003C  1F00     E  	clr _builtin_holtek_udivmodhi4_2[6]
  66  003D  0700     E  	mov a,rd  
  66  003E  0080     E  	mov _builtin_holtek_udivmodhi4_2[0],a  
  66  003F  0700     E  	mov a,re  
  66  0040  0080     E  	mov _builtin_holtek_udivmodhi4_2[1],a
  66  0041  0F0A        	mov a,10  
  66  0042  0080     E  	mov _builtin_holtek_udivmodhi4_2[2],a  
  66  0043  1F00     E  	clr _builtin_holtek_udivmodhi4_2[3]
  66  0044  2000     E  	call _builtin_holtek_udivmodhi4
  66  0045  0700     E  	mov a,_builtin_holtek_udivmodhi4_2[0]  
  66  0046  0080     R  	mov _update_RX_count_2[2],a  
  66  0047  0700     E  	mov a,_builtin_holtek_udivmodhi4_2[1]  
  66  0048  0080     R  	mov _update_RX_count_2[3],a
  67  0049              #line 67 "C:\Users\user\Documents\HTK_Project\3652_adc_test_2\UI.c"
  67  0049  0700     E  	mov a,rb
  67  004A  0300     E  	add a,rb
  67  004B  0080     E  	mov ra,a
  67  004C  0700     E  	mov a,rb
  67  004D  0380     E  	addm a,ra
  67  004E  1100     E  	swapa ra
  67  004F  1985        	rr acc
  67  0050  0EF8        	and a,0f8h
  67  0051  0080     E  	mov ra,a
  67  0052  0700     R  	mov a,_update_RX_count_2[0]
  67  0053  0380     E  	addm a,ra
  67  0054  0700     R  	mov a,_update_RX_count_2[4]
  67  0055  0080     E  	mov _builtin_holtek_mulqi3_2[0],a
  67  0056  0F9C        	mov a,156
  67  0057  2000     E  	call _builtin_holtek_mulqi3
  67  0058  0700     E  	mov a,_builtin_holtek_mulqi3_2[1]
  67  0059  0080     E  	mov rc,a
  67  005A  0700     E  	mov a,rc
  67  005B  0380     E  	addm a,ra
  67  005C  0700     R  	mov a,_update_RX_count_2[2]
  67  005D  0300     R  	add a,_update_RX_count_2[2]
  67  005E  0080     E  	mov rc,a
  67  005F  0700     E  	mov a,rc
  67  0060  0380     E  	addm a,rc
  67  0061  0700     R  	mov a,_update_RX_count_2[2]
  67  0062  0380     E  	addm a,rc
  67  0063  0700     E  	mov a,rc
  67  0064  0380     E  	addm a,rc
  67  0065  0700     E  	mov a,ra
  67  0066  0200     E  	sub a,rc
  67  0067  0080     R  	mov _update_RX_count_2[6],a
  69  0068              #line 69 "C:\Users\user\Documents\HTK_Project\3652_adc_test_2\UI.c"
  69  0068  1F00     E  	clr _LCM_Display6x8_Num_2[2]
  69  0069  0700     E  	mov a,rb
  69  006A  0080     E  	mov _LCM_Display6x8_Num_2[1],a
  69  006B  0F0E        	mov a,14
  69  006C  0080     E  	mov _LCM_Display6x8_Num_2[0],a
"File: UI.c          Assembler  Version HGASM0202      Page 10

  69  006D  0F04        	mov a,4
  69  006E  2000     E  	call _LCM_Display6x8_Num
  70  006F              #line 70 "C:\Users\user\Documents\HTK_Project\3652_adc_test_2\UI.c"
  70  006F  1F00     E  	clr _LCM_Display6x8_Num_2[2]
  70  0070  0700     R  	mov a,_update_RX_count_2[4]
  70  0071  0080     E  	mov _LCM_Display6x8_Num_2[1],a
  70  0072  0F0F        	mov a,15
  70  0073  0080     E  	mov _LCM_Display6x8_Num_2[0],a
  70  0074  0F04        	mov a,4
  70  0075  2000     E  	call _LCM_Display6x8_Num
  71  0076              #line 71 "C:\Users\user\Documents\HTK_Project\3652_adc_test_2\UI.c"
  71  0076  1F00     E  	clr _LCM_Display6x8_Num_2[2]
  71  0077  0700     R  	mov a,_update_RX_count_2[2]
  71  0078  0080     E  	mov _LCM_Display6x8_Num_2[1],a
  71  0079  0F10        	mov a,16
  71  007A  0080     E  	mov _LCM_Display6x8_Num_2[0],a
  71  007B  0F04        	mov a,4
  71  007C  2000     E  	call _LCM_Display6x8_Num
  72  007D              #line 72 "C:\Users\user\Documents\HTK_Project\3652_adc_test_2\UI.c"
  72  007D  1F00     E  	clr _LCM_Display6x8_Num_2[2]
  72  007E  0700     R  	mov a,_update_RX_count_2[6]
  72  007F  0080     E  	mov _LCM_Display6x8_Num_2[1],a
  72  0080  0F11        	mov a,17
  72  0081  0080     E  	mov _LCM_Display6x8_Num_2[0],a
  72  0082  0F04        	mov a,4
  72  0083  2000     E  	call _LCM_Display6x8_Num
  72  0084  0003        	ret
  72  0085              _update_RX_count endp
  72  0085              #line 72 "C:\Users\user\Documents\HTK_Project\3652_adc_test_2\UI.c"
  72  0085              #pragma debug scope 1 1
  72  0085              public _update_Er_count
  72  0085              #pragma debug scope 6 1
  76  0085              #line 76 "C:\Users\user\Documents\HTK_Project\3652_adc_test_2\UI.c"
  76  0000              _update_Er_count .section 'code'
  76  0000              _update_Er_count proc
  76  0000              public _update_Er_count_2
  76  0000  0007[           local _update_Er_count_2 db 7 dup(?)	; 2,5
            00
            ]
  76  0007              #pragma debug variable 12 6 _update_Er_count_2+0 "ercount"
  76  0007              #pragma debug variable 8 6 _update_Er_count_2+6 "d"
  79  0007              #line 79 "C:\Users\user\Documents\HTK_Project\3652_adc_test_2\UI.c"
  79  0000  1F00     E  	clr _builtin_holtek_udivmodhi4_2[6]
  79  0001  0700     R  	mov a,_update_Er_count_2[0]  
  79  0002  0080     E  	mov _builtin_holtek_udivmodhi4_2[0],a  
  79  0003  0700     R  	mov a,_update_Er_count_2[1]  
  79  0004  0080     E  	mov _builtin_holtek_udivmodhi4_2[1],a
  79  0005  0FE8        	mov a,232  
  79  0006  0080     E  	mov _builtin_holtek_udivmodhi4_2[2],a  
  79  0007  0F03        	mov a,3  
  79  0008  0080     E  	mov _builtin_holtek_udivmodhi4_2[3],a
  79  0009  2000     E  	call _builtin_holtek_udivmodhi4
  79  000A  0700     E  	mov a,_builtin_holtek_udivmodhi4_2[0]  
  79  000B  0080     E  	mov rb,a  
  79  000C  0700     E  	mov a,_builtin_holtek_udivmodhi4_2[1]  
  79  000D  0080     E  	mov rc,a
  80  000E              #line 80 "C:\Users\user\Documents\HTK_Project\3652_adc_test_2\UI.c"
  80  000E  0700     E  	mov a,rb  
  80  000F  0080     E  	mov _builtin_holtek_mulhi3_2[0],a  
  80  0010  0700     E  	mov a,rc  
"File: UI.c          Assembler  Version HGASM0202      Page 11

  80  0011  0080     E  	mov _builtin_holtek_mulhi3_2[1],a
  80  0012  0F18        	mov a,24  
  80  0013  0080     E  	mov _builtin_holtek_mulhi3_2[2],a  
  80  0014  0FFC        	mov a,252  
  80  0015  0080     E  	mov _builtin_holtek_mulhi3_2[3],a
  80  0016  2000     E  	call _builtin_holtek_mulhi3
  80  0017  0700     E  	mov a,_builtin_holtek_mulhi3_2[4]  
  80  0018  0080     E  	mov rd,a  
  80  0019  0700     E  	mov a,_builtin_holtek_mulhi3_2[5]  
  80  001A  0080     E  	mov re,a
  80  001B  0700     R  	mov a,_update_Er_count_2[0]
  80  001C  0380     E  	addm a,rd
  80  001D  0700     R  	mov a,_update_Er_count_2[1]
  80  001E  1380     E  	adcm a,re
  80  001F  1F00     E  	clr _builtin_holtek_udivmodhi4_2[6]
  80  0020  0700     E  	mov a,rd  
  80  0021  0080     E  	mov _builtin_holtek_udivmodhi4_2[0],a  
  80  0022  0700     E  	mov a,re  
  80  0023  0080     E  	mov _builtin_holtek_udivmodhi4_2[1],a
  80  0024  0F64        	mov a,100  
  80  0025  0080     E  	mov _builtin_holtek_udivmodhi4_2[2],a  
  80  0026  1F00     E  	clr _builtin_holtek_udivmodhi4_2[3]
  80  0027  2000     E  	call _builtin_holtek_udivmodhi4
  80  0028  0700     E  	mov a,_builtin_holtek_udivmodhi4_2[0]  
  80  0029  0080     R  	mov _update_Er_count_2[4],a  
  80  002A  0700     E  	mov a,_builtin_holtek_udivmodhi4_2[1]  
  80  002B  0080     R  	mov _update_Er_count_2[5],a
  81  002C              #line 81 "C:\Users\user\Documents\HTK_Project\3652_adc_test_2\UI.c"
  81  002C  0700     R  	mov a,_update_Er_count_2[4]
  81  002D  0080     E  	mov _builtin_holtek_mulhi3_2[0],a
  81  002E  1F00     E  	clr _builtin_holtek_mulhi3_2[1]
  81  002F  0F9C        	mov a,156
  81  0030  0080     E  	mov _builtin_holtek_mulhi3_2[2],a
  81  0031  0FFF        	mov a,255
  81  0032  0080     E  	mov _builtin_holtek_mulhi3_2[3],a
  81  0033  2000     E  	call _builtin_holtek_mulhi3
  81  0034  0700     E  	mov a,_builtin_holtek_mulhi3_2[4]  
  81  0035  0080     E  	mov rf,a  
  81  0036  0700     E  	mov a,_builtin_holtek_mulhi3_2[5]  
  81  0037  0080     E  	mov rg,a
  81  0038  0700     E  	mov a,rf
  81  0039  0380     E  	addm a,rd
  81  003A  0700     E  	mov a,rg
  81  003B  1380     E  	adcm a,re
  81  003C  1F00     E  	clr _builtin_holtek_udivmodhi4_2[6]
  81  003D  0700     E  	mov a,rd  
  81  003E  0080     E  	mov _builtin_holtek_udivmodhi4_2[0],a  
  81  003F  0700     E  	mov a,re  
  81  0040  0080     E  	mov _builtin_holtek_udivmodhi4_2[1],a
  81  0041  0F0A        	mov a,10  
  81  0042  0080     E  	mov _builtin_holtek_udivmodhi4_2[2],a  
  81  0043  1F00     E  	clr _builtin_holtek_udivmodhi4_2[3]
  81  0044  2000     E  	call _builtin_holtek_udivmodhi4
  81  0045  0700     E  	mov a,_builtin_holtek_udivmodhi4_2[0]  
  81  0046  0080     R  	mov _update_Er_count_2[2],a  
  81  0047  0700     E  	mov a,_builtin_holtek_udivmodhi4_2[1]  
  81  0048  0080     R  	mov _update_Er_count_2[3],a
  82  0049              #line 82 "C:\Users\user\Documents\HTK_Project\3652_adc_test_2\UI.c"
  82  0049  0700     E  	mov a,rb
  82  004A  0300     E  	add a,rb
"File: UI.c          Assembler  Version HGASM0202      Page 12

  82  004B  0080     E  	mov ra,a
  82  004C  0700     E  	mov a,rb
  82  004D  0380     E  	addm a,ra
  82  004E  1100     E  	swapa ra
  82  004F  1985        	rr acc
  82  0050  0EF8        	and a,0f8h
  82  0051  0080     E  	mov ra,a
  82  0052  0700     R  	mov a,_update_Er_count_2[0]
  82  0053  0380     E  	addm a,ra
  82  0054  0700     R  	mov a,_update_Er_count_2[4]
  82  0055  0080     E  	mov _builtin_holtek_mulqi3_2[0],a
  82  0056  0F9C        	mov a,156
  82  0057  2000     E  	call _builtin_holtek_mulqi3
  82  0058  0700     E  	mov a,_builtin_holtek_mulqi3_2[1]
  82  0059  0080     E  	mov rc,a
  82  005A  0700     E  	mov a,rc
  82  005B  0380     E  	addm a,ra
  82  005C  0700     R  	mov a,_update_Er_count_2[2]
  82  005D  0300     R  	add a,_update_Er_count_2[2]
  82  005E  0080     E  	mov rc,a
  82  005F  0700     E  	mov a,rc
  82  0060  0380     E  	addm a,rc
  82  0061  0700     R  	mov a,_update_Er_count_2[2]
  82  0062  0380     E  	addm a,rc
  82  0063  0700     E  	mov a,rc
  82  0064  0380     E  	addm a,rc
  82  0065  0700     E  	mov a,ra
  82  0066  0200     E  	sub a,rc
  82  0067  0080     R  	mov _update_Er_count_2[6],a
  84  0068              #line 84 "C:\Users\user\Documents\HTK_Project\3652_adc_test_2\UI.c"
  84  0068  1F00     E  	clr _LCM_Display6x8_Num_2[2]
  84  0069  0700     E  	mov a,rb
  84  006A  0080     E  	mov _LCM_Display6x8_Num_2[1],a
  84  006B  0F03        	mov a,3
  84  006C  0080     E  	mov _LCM_Display6x8_Num_2[0],a
  84  006D  0F05        	mov a,5
  84  006E  2000     E  	call _LCM_Display6x8_Num
  85  006F              #line 85 "C:\Users\user\Documents\HTK_Project\3652_adc_test_2\UI.c"
  85  006F  1F00     E  	clr _LCM_Display6x8_Num_2[2]
  85  0070  0700     R  	mov a,_update_Er_count_2[4]
  85  0071  0080     E  	mov _LCM_Display6x8_Num_2[1],a
  85  0072  0F04        	mov a,4
  85  0073  0080     E  	mov _LCM_Display6x8_Num_2[0],a
  85  0074  0F05        	mov a,5
  85  0075  2000     E  	call _LCM_Display6x8_Num
  86  0076              #line 86 "C:\Users\user\Documents\HTK_Project\3652_adc_test_2\UI.c"
  86  0076  1F00     E  	clr _LCM_Display6x8_Num_2[2]
  86  0077  0700     R  	mov a,_update_Er_count_2[2]
  86  0078  0080     E  	mov _LCM_Display6x8_Num_2[1],a
  86  0079  0F05        	mov a,5
  86  007A  0080     E  	mov _LCM_Display6x8_Num_2[0],a
  86  007B  0F05        	mov a,5
  86  007C  2000     E  	call _LCM_Display6x8_Num
  87  007D              #line 87 "C:\Users\user\Documents\HTK_Project\3652_adc_test_2\UI.c"
  87  007D  1F00     E  	clr _LCM_Display6x8_Num_2[2]
  87  007E  0700     R  	mov a,_update_Er_count_2[6]
  87  007F  0080     E  	mov _LCM_Display6x8_Num_2[1],a
  87  0080  0F06        	mov a,6
  87  0081  0080     E  	mov _LCM_Display6x8_Num_2[0],a
  87  0082  0F05        	mov a,5
"File: UI.c          Assembler  Version HGASM0202      Page 13

  87  0083  2000     E  	call _LCM_Display6x8_Num
  87  0084  0003        	ret
  87  0085              _update_Er_count endp
  87  0085              #line 87 "C:\Users\user\Documents\HTK_Project\3652_adc_test_2\UI.c"
  87  0085              #pragma debug scope 1 1
  87  0085              public _update_rcvRSSI
  87  0085              #pragma debug scope 7 1
  91  0085              #line 91 "C:\Users\user\Documents\HTK_Project\3652_adc_test_2\UI.c"
  91  0000              _update_rcvRSSI .section 'code'
  91  0000              _update_rcvRSSI proc
  91  0000  0004[           local _update_rcvRSSI_2 db 4 dup(?)	; 0,4
            00
            ]
  91  0000  0080     E  	mov rb,a
  91  0001  0080     E  	mov ra,a
  91  0002  0080     R  	mov _update_rcvRSSI_2[0],a
  91  0003              #pragma debug variable 8 7 _update_rcvRSSI_2+0 "rcvRSSI"
  91  0003              #pragma debug variable 8 7 _update_rcvRSSI_2+3 "b"
  94  0003              #line 94 "C:\Users\user\Documents\HTK_Project\3652_adc_test_2\UI.c"
  94  0003  1F00     E  	clr _builtin_holtek_udivmodqi4_2[3]
  94  0004  0700     E  	mov a,rb
  94  0005  0080     E  	mov _builtin_holtek_udivmodqi4_2[0],a
  94  0006  0F64        	mov a,100
  94  0007  0080     E  	mov _builtin_holtek_udivmodqi4_2[1],a
  94  0008  2000     E  	call _builtin_holtek_udivmodqi4
  94  0009  0700     E  	mov a,_builtin_holtek_udivmodqi4_2[0]
  94  000A  0080     R  	mov _update_rcvRSSI_2[3],a
  95  000B              #line 95 "C:\Users\user\Documents\HTK_Project\3652_adc_test_2\UI.c"
  95  000B  0700     R  	mov a,_update_rcvRSSI_2[3]
  95  000C  0080     E  	mov _builtin_holtek_mulhi3_2[0],a
  95  000D  1F00     E  	clr _builtin_holtek_mulhi3_2[1]
  95  000E  0F9C        	mov a,156
  95  000F  0080     E  	mov _builtin_holtek_mulhi3_2[2],a
  95  0010  0FFF        	mov a,255
  95  0011  0080     E  	mov _builtin_holtek_mulhi3_2[3],a
  95  0012  2000     E  	call _builtin_holtek_mulhi3
  95  0013  0700     E  	mov a,_builtin_holtek_mulhi3_2[4]  
  95  0014  0080     E  	mov rb,a  
  95  0015  0700     E  	mov a,_builtin_holtek_mulhi3_2[5]  
  95  0016  0080     E  	mov rc,a
  95  0017  0700     E  	mov a,ra
  95  0018  0380     E  	addm a,rb
  95  0019  3C0A        	sz c
  95  001A  1480     E  	inc rc
  95  001B  0700     E  	mov a,rb
  95  001C  0080     E  	mov _builtin_holtek_udivmodhi4_2[0],a
  95  001D  0700     E  	mov a,rc
  95  001E  0080     E  	mov _builtin_holtek_udivmodhi4_2[1],a
  95  001F  0F0A        	mov a,10
  95  0020  0080     E  	mov _builtin_holtek_udivmodhi4_2[2],a
  95  0021  0F00        	mov a,0
  95  0022  0080     E  	mov _builtin_holtek_udivmodhi4_2[3],a
  95  0023  2000     E  	call _builtin_holtek_divmodhi4
  95  0024  0700     E  	mov a,_builtin_holtek_udivmodhi4_2[0]
  95  0025  0080     R  	mov _update_rcvRSSI_2[1],a
  95  0026  0700     E  	mov a,_builtin_holtek_udivmodhi4_2[1]
  95  0027  0080     R  	mov _update_rcvRSSI_2[2],a
  98  0028              #line 98 "C:\Users\user\Documents\HTK_Project\3652_adc_test_2\UI.c"
  98  0028  1F00     E  	clr _LCM_Display6x8_Num_2[2]
  98  0029  0700     R  	mov a,_update_rcvRSSI_2[3]
"File: UI.c          Assembler  Version HGASM0202      Page 14

  98  002A  0080     E  	mov _LCM_Display6x8_Num_2[1],a
  98  002B  0F09        	mov a,9
  98  002C  0080     E  	mov _LCM_Display6x8_Num_2[0],a
  98  002D  0F07        	mov a,7
  98  002E  2000     E  	call _LCM_Display6x8_Num
  99  002F              #line 99 "C:\Users\user\Documents\HTK_Project\3652_adc_test_2\UI.c"
  99  002F  1F00     E  	clr _LCM_Display6x8_Num_2[2]
  95  0030              #line 95 "C:\Users\user\Documents\HTK_Project\3652_adc_test_2\UI.c"
  95  0030  0700     R  	mov a,_update_rcvRSSI_2[1]
  95  0031  0080     E  	mov _LCM_Display6x8_Num_2[1],a
  99  0032              #line 99 "C:\Users\user\Documents\HTK_Project\3652_adc_test_2\UI.c"
  99  0032  0F0A        	mov a,10
  99  0033  0080     E  	mov _LCM_Display6x8_Num_2[0],a
  99  0034  0F07        	mov a,7
  99  0035  2000     E  	call _LCM_Display6x8_Num
 100  0036              #line 100 "C:\Users\user\Documents\HTK_Project\3652_adc_test_2\UI.c"
 100  0036  1F00     E  	clr _LCM_Display6x8_Num_2[2]
  96  0037              #line 96 "C:\Users\user\Documents\HTK_Project\3652_adc_test_2\UI.c"
  96  0037  0700     R  	mov a,_update_rcvRSSI_2[3]
  96  0038  0080     E  	mov _builtin_holtek_mulqi3_2[0],a
  96  0039  0F9C        	mov a,156
  96  003A  2000     E  	call _builtin_holtek_mulqi3
  96  003B  0700     E  	mov a,_builtin_holtek_mulqi3_2[1]
  96  003C  0080     E  	mov rb,a
  96  003D  0700     R  	mov a,_update_rcvRSSI_2[0]
  96  003E  0380     E  	addm a,rb
  96  003F  0700     R  	mov a,_update_rcvRSSI_2[1]
  96  0040  0300     R  	add a,_update_rcvRSSI_2[1]
  96  0041  0080     E  	mov ra,a
  96  0042  0700     E  	mov a,ra
  96  0043  0380     E  	addm a,ra
  96  0044  0700     R  	mov a,_update_rcvRSSI_2[1]
  96  0045  0380     E  	addm a,ra
  96  0046  0700     E  	mov a,ra
  96  0047  0380     E  	addm a,ra
 100  0048              #line 100 "C:\Users\user\Documents\HTK_Project\3652_adc_test_2\UI.c"
 100  0048  0700     E  	mov a,rb
 100  0049  0200     E  	sub a,ra
 100  004A  0080     E  	mov _LCM_Display6x8_Num_2[1],a
 100  004B  0F0B        	mov a,11
 100  004C  0080     E  	mov _LCM_Display6x8_Num_2[0],a
 100  004D  0F07        	mov a,7
 100  004E  2000     E  	call _LCM_Display6x8_Num
 100  004F  0003        	ret
 100  0050              _update_rcvRSSI endp
 100  0050              #line 100 "C:\Users\user\Documents\HTK_Project\3652_adc_test_2\UI.c"
 100  0050              #pragma debug scope 1 1
 100  0050              public _update_frequency
 100  0050              #pragma debug scope 8 1
 104  0050              #line 104 "C:\Users\user\Documents\HTK_Project\3652_adc_test_2\UI.c"
 104  0000              _update_frequency .section 'code'
 104  0000              _update_frequency proc
 104  0000              public _update_frequency_2
 104  0000  001D[           local _update_frequency_2 db 29 dup(?)	; 4,25
            00
            ]
 104  001D              #pragma debug variable 14 8 _update_frequency_2+0 "frequency"
 104  001D              #pragma debug variable 8 8 _update_frequency_2+24 "f"
 107  001D              #line 107 "C:\Users\user\Documents\HTK_Project\3652_adc_test_2\UI.c"
 107  0000  1F00     E  	clr _builtin_holtek_udivmodsi4_2[12]
"File: UI.c          Assembler  Version HGASM0202      Page 15

 107  0001  0700     R  	mov a,_update_frequency_2[0]  
 107  0002  0080     E  	mov _builtin_holtek_udivmodsi4_2[0],a  
 107  0003  0700     R  	mov a,_update_frequency_2[1]  
 107  0004  0080     E  	mov _builtin_holtek_udivmodsi4_2[1],a
 107  0005  0700     R  	mov a,_update_frequency_2[2]  
 107  0006  0080     E  	mov _builtin_holtek_udivmodsi4_2[2],a  
 107  0007  0700     R  	mov a,_update_frequency_2[3]  
 107  0008  0080     E  	mov _builtin_holtek_udivmodsi4_2[3],a
 107  0009  0FA0        	mov a,160  
 107  000A  0080     E  	mov _builtin_holtek_udivmodsi4_2[4],a  
 107  000B  0F86        	mov a,134  
 107  000C  0080     E  	mov _builtin_holtek_udivmodsi4_2[5],a
 107  000D  0F01        	mov a,1  
 107  000E  0080     E  	mov _builtin_holtek_udivmodsi4_2[6],a  
 107  000F  0F00        	mov a,0  
 107  0010  0080     E  	mov _builtin_holtek_udivmodsi4_2[7],a
 107  0011  2000     E  	call _builtin_holtek_udivmodsi4
 107  0012  0700     E  	mov a,_builtin_holtek_udivmodsi4_2[0]  
 107  0013  0080     R  	mov _update_frequency_2[16],a  
 107  0014  0700     E  	mov a,_builtin_holtek_udivmodsi4_2[1]  
 107  0015  0080     R  	mov _update_frequency_2[17],a
 107  0016  0700     E  	mov a,_builtin_holtek_udivmodsi4_2[2]  
 107  0017  0080     R  	mov _update_frequency_2[18],a  
 107  0018  0700     E  	mov a,_builtin_holtek_udivmodsi4_2[3]  
 107  0019  0080     R  	mov _update_frequency_2[19],a
 108  001A              #line 108 "C:\Users\user\Documents\HTK_Project\3652_adc_test_2\UI.c"
 108  001A  0700     R  	mov a,_update_frequency_2[16]
 108  001B  0080     E  	mov rd,a
 108  001C  0700     R  	mov a,_update_frequency_2[17]
 108  001D  0080     E  	mov re,a
 108  001E  0700     R  	mov a,_update_frequency_2[18]
 108  001F  0080     E  	mov rf,a
 108  0020  0700     R  	mov a,_update_frequency_2[19]
 108  0021  0080     E  	mov rg,a
 108  0022  0F00        	mov a,0
 108  0023  0680     E  	andm a,rg
 108  0024  0F00        	mov a,0
 108  0025  0680     E  	andm a,rf
 108  0026  0F00        	mov a,0
 108  0027  0680     E  	andm a,re
 108  0028  0FFF        	mov a,255
 108  0029  0680     E  	andm a,rd
 108  002A  0700     E  	mov a,rd
 108  002B  0080     E  	mov _builtin_holtek_mulsi3_2[0],a
 108  002C  0700     E  	mov a,re
 108  002D  0080     E  	mov _builtin_holtek_mulsi3_2[1],a
 108  002E  0700     E  	mov a,rf
 108  002F  0080     E  	mov _builtin_holtek_mulsi3_2[2],a
 108  0030  0700     E  	mov a,rg
 108  0031  0080     E  	mov _builtin_holtek_mulsi3_2[3],a
 108  0032  0FA0        	mov a,160
 108  0033  0080     E  	mov _builtin_holtek_mulsi3_2[4],a
 108  0034  0F86        	mov a,134
 108  0035  0080     E  	mov _builtin_holtek_mulsi3_2[5],a
 108  0036  0F01        	mov a,1
 108  0037  0080     E  	mov _builtin_holtek_mulsi3_2[6],a
 108  0038  0F00        	mov a,0
 108  0039  0080     E  	mov _builtin_holtek_mulsi3_2[7],a
 108  003A  2000     E  	call _builtin_holtek_mulsi3
 108  003B  0700     E  	mov a,_builtin_holtek_mulsi3_2[8]
"File: UI.c          Assembler  Version HGASM0202      Page 16

 108  003C  0080     E  	mov re,a
 108  003D  0700     E  	mov a,_builtin_holtek_mulsi3_2[9]
 108  003E  0080     E  	mov rf,a
 108  003F  0700     E  	mov a,_builtin_holtek_mulsi3_2[10]
 108  0040  0080     E  	mov rg,a
 108  0041  0700     E  	mov a,_builtin_holtek_mulsi3_2[11]
 108  0042  0080     E  	mov rh,a
 108  0043  0700     R  	mov a,_update_frequency_2[0]
 108  0044  0280     E  	subm a,re
 108  0045  0700     R  	mov a,_update_frequency_2[1]
 108  0046  1280     E  	sbcm a,rf
 108  0047  0700     R  	mov a,_update_frequency_2[2]
 108  0048  1280     E  	sbcm a,rg
 108  0049  0700     R  	mov a,_update_frequency_2[3]
 108  004A  1280     E  	sbcm a,rh
 108  004B  1F00     E  	clr _builtin_holtek_udivmodsi4_2[12]
 108  004C  0700     E  	mov a,re  
 108  004D  0080     E  	mov _builtin_holtek_udivmodsi4_2[0],a  
 108  004E  0700     E  	mov a,rf  
 108  004F  0080     E  	mov _builtin_holtek_udivmodsi4_2[1],a
 108  0050  0700     E  	mov a,rg  
 108  0051  0080     E  	mov _builtin_holtek_udivmodsi4_2[2],a  
 108  0052  0700     E  	mov a,rh  
 108  0053  0080     E  	mov _builtin_holtek_udivmodsi4_2[3],a
 108  0054  0F10        	mov a,16  
 108  0055  0080     E  	mov _builtin_holtek_udivmodsi4_2[4],a  
 108  0056  0F27        	mov a,39  
 108  0057  0080     E  	mov _builtin_holtek_udivmodsi4_2[5],a
 108  0058  1F00     E  	clr _builtin_holtek_udivmodsi4_2[6]
 108  0059  1F00     E  	clr _builtin_holtek_udivmodsi4_2[7]
 108  005A  2000     E  	call _builtin_holtek_udivmodsi4
 108  005B  0700     E  	mov a,_builtin_holtek_udivmodsi4_2[0]  
 108  005C  0080     R  	mov _update_frequency_2[20],a  
 108  005D  0700     E  	mov a,_builtin_holtek_udivmodsi4_2[1]  
 108  005E  0080     R  	mov _update_frequency_2[21],a
 108  005F  0700     E  	mov a,_builtin_holtek_udivmodsi4_2[2]  
 108  0060  0080     R  	mov _update_frequency_2[22],a  
 108  0061  0700     E  	mov a,_builtin_holtek_udivmodsi4_2[3]  
 108  0062  0080     R  	mov _update_frequency_2[23],a
 109  0063              #line 109 "C:\Users\user\Documents\HTK_Project\3652_adc_test_2\UI.c"
 109  0063  0700     R  	mov a,_update_frequency_2[20]
 109  0064  0080     E  	mov ra,a
 109  0065  0700     R  	mov a,_update_frequency_2[21]
 109  0066  0080     E  	mov rb,a
 109  0067  0700     R  	mov a,_update_frequency_2[22]
 109  0068  0080     E  	mov rc,a
 109  0069  0700     R  	mov a,_update_frequency_2[23]
 109  006A  0080     E  	mov rd,a
 109  006B  0F00        	mov a,0
 109  006C  0680     E  	andm a,rd
 109  006D  0F00        	mov a,0
 109  006E  0680     E  	andm a,rc
 109  006F  0F00        	mov a,0
 109  0070  0680     E  	andm a,rb
 109  0071  0FFF        	mov a,255
 109  0072  0680     E  	andm a,ra
 109  0073  0700     E  	mov a,ra
 109  0074  0080     E  	mov _builtin_holtek_mulsi3_2[0],a
 109  0075  0700     E  	mov a,rb
 109  0076  0080     E  	mov _builtin_holtek_mulsi3_2[1],a
"File: UI.c          Assembler  Version HGASM0202      Page 17

 109  0077  0700     E  	mov a,rc
 109  0078  0080     E  	mov _builtin_holtek_mulsi3_2[2],a
 109  0079  0700     E  	mov a,rd
 109  007A  0080     E  	mov _builtin_holtek_mulsi3_2[3],a
 109  007B  0F10        	mov a,16
 109  007C  0080     E  	mov _builtin_holtek_mulsi3_2[4],a
 109  007D  0F27        	mov a,39
 109  007E  0080     E  	mov _builtin_holtek_mulsi3_2[5],a
 109  007F  0F00        	mov a,0
 109  0080  0080     E  	mov _builtin_holtek_mulsi3_2[6],a
 109  0081  0F00        	mov a,0
 109  0082  0080     E  	mov _builtin_holtek_mulsi3_2[7],a
 109  0083  2000     E  	call _builtin_holtek_mulsi3
 109  0084  0700     E  	mov a,_builtin_holtek_mulsi3_2[8]
 109  0085  0080     E  	mov ra,a
 109  0086  0700     E  	mov a,_builtin_holtek_mulsi3_2[9]
 109  0087  0080     E  	mov rb,a
 109  0088  0700     E  	mov a,_builtin_holtek_mulsi3_2[10]
 109  0089  0080     E  	mov rc,a
 109  008A  0700     E  	mov a,_builtin_holtek_mulsi3_2[11]
 109  008B  0080     E  	mov rd,a
 109  008C  0700     E  	mov a,re
 109  008D  0200     E  	sub a,ra
 109  008E  0080     E  	mov re,a
 109  008F  0700     E  	mov a,rf
 109  0090  1200     E  	sbc a,rb
 109  0091  0080     E  	mov rf,a
 109  0092  0700     E  	mov a,rg
 109  0093  1200     E  	sbc a,rc
 109  0094  0080     E  	mov rg,a
 109  0095  0700     E  	mov a,rh
 109  0096  1200     E  	sbc a,rd
 109  0097  0080     E  	mov rh,a
 109  0098  1F00     E  	clr _builtin_holtek_udivmodsi4_2[12]
 109  0099  0700     E  	mov a,re  
 109  009A  0080     E  	mov _builtin_holtek_udivmodsi4_2[0],a  
 109  009B  0700     E  	mov a,rf  
 109  009C  0080     E  	mov _builtin_holtek_udivmodsi4_2[1],a
 109  009D  0700     E  	mov a,rg  
 109  009E  0080     E  	mov _builtin_holtek_udivmodsi4_2[2],a  
 109  009F  0700     E  	mov a,rh  
 109  00A0  0080     E  	mov _builtin_holtek_udivmodsi4_2[3],a
 109  00A1  0FE8        	mov a,232  
 109  00A2  0080     E  	mov _builtin_holtek_udivmodsi4_2[4],a  
 109  00A3  0F03        	mov a,3  
 109  00A4  0080     E  	mov _builtin_holtek_udivmodsi4_2[5],a
 109  00A5  1F00     E  	clr _builtin_holtek_udivmodsi4_2[6]
 109  00A6  1F00     E  	clr _builtin_holtek_udivmodsi4_2[7]
 109  00A7  2000     E  	call _builtin_holtek_udivmodsi4
 109  00A8  0700     E  	mov a,_builtin_holtek_udivmodsi4_2[0]  
 109  00A9  0080     R  	mov _update_frequency_2[4],a  
 109  00AA  0700     E  	mov a,_builtin_holtek_udivmodsi4_2[1]  
 109  00AB  0080     R  	mov _update_frequency_2[5],a
 109  00AC  0700     E  	mov a,_builtin_holtek_udivmodsi4_2[2]  
 109  00AD  0080     R  	mov _update_frequency_2[6],a  
 109  00AE  0700     E  	mov a,_builtin_holtek_udivmodsi4_2[3]  
 109  00AF  0080     R  	mov _update_frequency_2[7],a
 110  00B0              #line 110 "C:\Users\user\Documents\HTK_Project\3652_adc_test_2\UI.c"
 110  00B0  0700     R  	mov a,_update_frequency_2[4]
 110  00B1  0080     E  	mov ra,a
"File: UI.c          Assembler  Version HGASM0202      Page 18

 110  00B2  0700     R  	mov a,_update_frequency_2[5]
 110  00B3  0080     E  	mov rb,a
 110  00B4  0700     R  	mov a,_update_frequency_2[6]
 110  00B5  0080     E  	mov rc,a
 110  00B6  0700     R  	mov a,_update_frequency_2[7]
 110  00B7  0080     E  	mov rd,a
 110  00B8  0F00        	mov a,0
 110  00B9  0680     E  	andm a,rd
 110  00BA  0F00        	mov a,0
 110  00BB  0680     E  	andm a,rc
 110  00BC  0F00        	mov a,0
 110  00BD  0680     E  	andm a,rb
 110  00BE  0FFF        	mov a,255
 110  00BF  0680     E  	andm a,ra
 110  00C0  0700     E  	mov a,ra
 110  00C1  0080     E  	mov _builtin_holtek_mulsi3_2[0],a
 110  00C2  0700     E  	mov a,rb
 110  00C3  0080     E  	mov _builtin_holtek_mulsi3_2[1],a
 110  00C4  0700     E  	mov a,rc
 110  00C5  0080     E  	mov _builtin_holtek_mulsi3_2[2],a
 110  00C6  0700     E  	mov a,rd
 110  00C7  0080     E  	mov _builtin_holtek_mulsi3_2[3],a
 110  00C8  0FE8        	mov a,232
 110  00C9  0080     E  	mov _builtin_holtek_mulsi3_2[4],a
 110  00CA  0F03        	mov a,3
 110  00CB  0080     E  	mov _builtin_holtek_mulsi3_2[5],a
 110  00CC  0F00        	mov a,0
 110  00CD  0080     E  	mov _builtin_holtek_mulsi3_2[6],a
 110  00CE  0F00        	mov a,0
 110  00CF  0080     E  	mov _builtin_holtek_mulsi3_2[7],a
 110  00D0  2000     E  	call _builtin_holtek_mulsi3
 110  00D1  0700     E  	mov a,_builtin_holtek_mulsi3_2[8]
 110  00D2  0080     R  	mov _update_frequency_2[8],a
 110  00D3  0700     E  	mov a,_builtin_holtek_mulsi3_2[9]
 110  00D4  0080     R  	mov _update_frequency_2[9],a
 110  00D5  0700     E  	mov a,_builtin_holtek_mulsi3_2[10]
 110  00D6  0080     R  	mov _update_frequency_2[10],a
 110  00D7  0700     E  	mov a,_builtin_holtek_mulsi3_2[11]
 110  00D8  0080     R  	mov _update_frequency_2[11],a
 110  00D9  0700     E  	mov a,re
 110  00DA  0200     R  	sub a,_update_frequency_2[8]
 110  00DB  0080     E  	mov ra,a
 110  00DC  0700     E  	mov a,rf
 110  00DD  1200     R  	sbc a,_update_frequency_2[9]
 110  00DE  0080     E  	mov rb,a
 110  00DF  0700     E  	mov a,rg
 110  00E0  1200     R  	sbc a,_update_frequency_2[10]
 110  00E1  0080     E  	mov rc,a
 110  00E2  0700     E  	mov a,rh
 110  00E3  1200     R  	sbc a,_update_frequency_2[11]
 110  00E4  0080     E  	mov rd,a
 110  00E5  0700     E  	mov a,ra
 110  00E6  0080     R  	mov _update_frequency_2[25],a
 110  00E7  0700     E  	mov a,rb
 110  00E8  0080     R  	mov _update_frequency_2[26],a
 110  00E9  0700     E  	mov a,rc
 110  00EA  0080     R  	mov _update_frequency_2[27],a
 110  00EB  0700     E  	mov a,rd
 110  00EC  0080     R  	mov _update_frequency_2[28],a
 110  00ED  1F00     E  	clr _builtin_holtek_udivmodsi4_2[12]
"File: UI.c          Assembler  Version HGASM0202      Page 19

 110  00EE  0700     E  	mov a,ra  
 110  00EF  0080     E  	mov _builtin_holtek_udivmodsi4_2[0],a  
 110  00F0  0700     E  	mov a,rb  
 110  00F1  0080     E  	mov _builtin_holtek_udivmodsi4_2[1],a
 110  00F2  0700     E  	mov a,rc  
 110  00F3  0080     E  	mov _builtin_holtek_udivmodsi4_2[2],a  
 110  00F4  0700     E  	mov a,rd  
 110  00F5  0080     E  	mov _builtin_holtek_udivmodsi4_2[3],a
 110  00F6  0F64        	mov a,100  
 110  00F7  0080     E  	mov _builtin_holtek_udivmodsi4_2[4],a  
 110  00F8  0F00        	mov a,0  
 110  00F9  0080     E  	mov _builtin_holtek_udivmodsi4_2[5],a
 110  00FA  1F00     E  	clr _builtin_holtek_udivmodsi4_2[6]
 110  00FB  1F00     E  	clr _builtin_holtek_udivmodsi4_2[7]
 110  00FC  2000     E  	call _builtin_holtek_udivmodsi4
 110  00FD  0700     E  	mov a,_builtin_holtek_udivmodsi4_2[0]  
 110  00FE  0080     R  	mov _update_frequency_2[8],a  
 110  00FF  0700     E  	mov a,_builtin_holtek_udivmodsi4_2[1]  
 110  0100  0080     R  	mov _update_frequency_2[9],a
 110  0101  0700     E  	mov a,_builtin_holtek_udivmodsi4_2[2]  
 110  0102  0080     R  	mov _update_frequency_2[10],a  
 110  0103  0700     E  	mov a,_builtin_holtek_udivmodsi4_2[3]  
 110  0104  0080     R  	mov _update_frequency_2[11],a
 111  0105              #line 111 "C:\Users\user\Documents\HTK_Project\3652_adc_test_2\UI.c"
 111  0105  0700     R  	mov a,_update_frequency_2[8]
 111  0106  0080     E  	mov re,a
 111  0107  0700     R  	mov a,_update_frequency_2[9]
 111  0108  0080     E  	mov rf,a
 111  0109  0700     R  	mov a,_update_frequency_2[10]
 111  010A  0080     E  	mov rg,a
 111  010B  0700     R  	mov a,_update_frequency_2[11]
 111  010C  0080     E  	mov rh,a
 111  010D  0F00        	mov a,0
 111  010E  0680     E  	andm a,rh
 111  010F  0F00        	mov a,0
 111  0110  0680     E  	andm a,rg
 111  0111  0F00        	mov a,0
 111  0112  0680     E  	andm a,rf
 111  0113  0FFF        	mov a,255
 111  0114  0680     E  	andm a,re
 111  0115  0700     E  	mov a,re
 111  0116  0080     E  	mov _builtin_holtek_mulsi3_2[0],a
 111  0117  0700     E  	mov a,rf
 111  0118  0080     E  	mov _builtin_holtek_mulsi3_2[1],a
 111  0119  0700     E  	mov a,rg
 111  011A  0080     E  	mov _builtin_holtek_mulsi3_2[2],a
 111  011B  0700     E  	mov a,rh
 111  011C  0080     E  	mov _builtin_holtek_mulsi3_2[3],a
 111  011D  0F64        	mov a,100
 111  011E  0080     E  	mov _builtin_holtek_mulsi3_2[4],a
 111  011F  0F00        	mov a,0
 111  0120  0080     E  	mov _builtin_holtek_mulsi3_2[5],a
 111  0121  0F00        	mov a,0
 111  0122  0080     E  	mov _builtin_holtek_mulsi3_2[6],a
 111  0123  0F00        	mov a,0
 111  0124  0080     E  	mov _builtin_holtek_mulsi3_2[7],a
 111  0125  2000     E  	call _builtin_holtek_mulsi3
 111  0126  0700     E  	mov a,_builtin_holtek_mulsi3_2[8]
 111  0127  0080     R  	mov _update_frequency_2[12],a
 111  0128  0700     E  	mov a,_builtin_holtek_mulsi3_2[9]
"File: UI.c          Assembler  Version HGASM0202      Page 20

 111  0129  0080     R  	mov _update_frequency_2[13],a
 111  012A  0700     E  	mov a,_builtin_holtek_mulsi3_2[10]
 111  012B  0080     R  	mov _update_frequency_2[14],a
 111  012C  0700     E  	mov a,_builtin_holtek_mulsi3_2[11]
 111  012D  0080     R  	mov _update_frequency_2[15],a
 111  012E  0700     R  	mov a,_update_frequency_2[25]
 111  012F  0200     R  	sub a,_update_frequency_2[12]
 111  0130  0080     E  	mov rb,a
 111  0131  0700     R  	mov a,_update_frequency_2[26]
 111  0132  1200     R  	sbc a,_update_frequency_2[13]
 111  0133  0080     E  	mov rc,a
 111  0134  0700     R  	mov a,_update_frequency_2[27]
 111  0135  1200     R  	sbc a,_update_frequency_2[14]
 111  0136  0080     E  	mov rd,a
 111  0137  0700     R  	mov a,_update_frequency_2[28]
 111  0138  1200     R  	sbc a,_update_frequency_2[15]
 111  0139  0080     E  	mov re,a
 111  013A  1F00     E  	clr _builtin_holtek_udivmodsi4_2[12]
 111  013B  0700     E  	mov a,rb  
 111  013C  0080     E  	mov _builtin_holtek_udivmodsi4_2[0],a  
 111  013D  0700     E  	mov a,rc  
 111  013E  0080     E  	mov _builtin_holtek_udivmodsi4_2[1],a
 111  013F  0700     E  	mov a,rd  
 111  0140  0080     E  	mov _builtin_holtek_udivmodsi4_2[2],a  
 111  0141  0700     E  	mov a,re  
 111  0142  0080     E  	mov _builtin_holtek_udivmodsi4_2[3],a
 111  0143  0F0A        	mov a,10  
 111  0144  0080     E  	mov _builtin_holtek_udivmodsi4_2[4],a  
 111  0145  0F00        	mov a,0  
 111  0146  0080     E  	mov _builtin_holtek_udivmodsi4_2[5],a
 111  0147  1F00     E  	clr _builtin_holtek_udivmodsi4_2[6]
 111  0148  1F00     E  	clr _builtin_holtek_udivmodsi4_2[7]
 111  0149  2000     E  	call _builtin_holtek_udivmodsi4
 111  014A  0700     E  	mov a,_builtin_holtek_udivmodsi4_2[0]  
 111  014B  0080     R  	mov _update_frequency_2[12],a  
 111  014C  0700     E  	mov a,_builtin_holtek_udivmodsi4_2[1]  
 111  014D  0080     R  	mov _update_frequency_2[13],a
 111  014E  0700     E  	mov a,_builtin_holtek_udivmodsi4_2[2]  
 111  014F  0080     R  	mov _update_frequency_2[14],a  
 111  0150  0700     E  	mov a,_builtin_holtek_udivmodsi4_2[3]  
 111  0151  0080     R  	mov _update_frequency_2[15],a
 112  0152              #line 112 "C:\Users\user\Documents\HTK_Project\3652_adc_test_2\UI.c"
 112  0152  0700     R  	mov a,_update_frequency_2[16]
 112  0153  0300     R  	add a,_update_frequency_2[16]
 112  0154  0080     E  	mov ra,a
 112  0155  0700     E  	mov a,ra
 112  0156  0380     E  	addm a,ra
 112  0157  0700     R  	mov a,_update_frequency_2[16]
 112  0158  0380     E  	addm a,ra
 112  0159  1100     E  	swapa ra
 112  015A  1885        	rl acc
 112  015B  0EE0        	and a,0e0h
 112  015C  0080     E  	mov ra,a
 112  015D  0700     R  	mov a,_update_frequency_2[0]
 112  015E  0280     E  	subm a,ra
 112  015F  0700     R  	mov a,_update_frequency_2[20]
 112  0160  0080     E  	mov rb,a
 112  0161  1100     E  	swapa rb
 112  0162  0EF0        	and a,0f0h 
 112  0163  0080     E  	mov rb,a
"File: UI.c          Assembler  Version HGASM0202      Page 21

 112  0164  0700     E  	mov a,ra
 112  0165  0200     E  	sub a,rb
 112  0166  0080     E  	mov ra,a
 112  0167  0700     R  	mov a,_update_frequency_2[4]
 112  0168  0300     R  	add a,_update_frequency_2[4]
 112  0169  0080     E  	mov rb,a
 112  016A  0700     R  	mov a,_update_frequency_2[4]
 112  016B  0380     E  	addm a,rb
 112  016C  0700     E  	mov a,rb
 112  016D  0380     E  	addm a,rb
 112  016E  0700     R  	mov a,_update_frequency_2[4]
 112  016F  0380     E  	addm a,rb
 112  0170  0700     E  	mov a,rb
 112  0171  0080     E  	mov rc,a
 112  0172  1100     E  	swapa rc
 112  0173  1885        	rl acc
 112  0174  0EE0        	and a,0e0h
 112  0175  0080     E  	mov rc,a
 112  0176  0700     E  	mov a,rc
 112  0177  0380     E  	addm a,rb
 112  0178  0700     R  	mov a,_update_frequency_2[4]
 112  0179  0380     E  	addm a,rb
 112  017A  0700     E  	mov a,ra
 112  017B  0200     E  	sub a,rb
 112  017C  0080     E  	mov ra,a
 112  017D  0700     R  	mov a,_update_frequency_2[8]
 112  017E  0300     R  	add a,_update_frequency_2[8]
 112  017F  0080     E  	mov rb,a
 112  0180  0700     R  	mov a,_update_frequency_2[8]
 112  0181  0380     E  	addm a,rb
 112  0182  0700     E  	mov a,rb
 112  0183  0080     E  	mov rc,a
 112  0184  1100     E  	swapa rc
 112  0185  1885        	rl acc
 112  0186  0EE0        	and a,0e0h
 112  0187  0080     E  	mov rc,a
 112  0188  0700     E  	mov a,rc
 112  0189  0380     E  	addm a,rb
 112  018A  0700     R  	mov a,_update_frequency_2[8]
 112  018B  0380     E  	addm a,rb
 112  018C  0700     E  	mov a,ra
 112  018D  0200     E  	sub a,rb
 112  018E  0080     E  	mov ra,a
 112  018F  0700     R  	mov a,_update_frequency_2[12]
 112  0190  0300     R  	add a,_update_frequency_2[12]
 112  0191  0080     E  	mov rb,a
 112  0192  0700     E  	mov a,rb
 112  0193  0380     E  	addm a,rb
 112  0194  0700     R  	mov a,_update_frequency_2[12]
 112  0195  0380     E  	addm a,rb
 112  0196  0700     E  	mov a,rb
 112  0197  0380     E  	addm a,rb
 112  0198  0700     E  	mov a,ra
 112  0199  0200     E  	sub a,rb
 112  019A  0080     R  	mov _update_frequency_2[24],a
 114  019B              #line 114 "C:\Users\user\Documents\HTK_Project\3652_adc_test_2\UI.c"
 114  019B  1F00     E  	clr _LCM_Display6x8_Num_2[2]
 114  019C  0700     R  	mov a,_update_frequency_2[16]
 114  019D  0080     E  	mov _LCM_Display6x8_Num_2[1],a
 114  019E  0F04        	mov a,4
"File: UI.c          Assembler  Version HGASM0202      Page 22

 114  019F  0080     E  	mov _LCM_Display6x8_Num_2[0],a
 114  01A0  0F03        	mov a,3
 114  01A1  2000     E  	call _LCM_Display6x8_Num
 115  01A2              #line 115 "C:\Users\user\Documents\HTK_Project\3652_adc_test_2\UI.c"
 115  01A2  1F00     E  	clr _LCM_Display6x8_Num_2[2]
 115  01A3  0700     R  	mov a,_update_frequency_2[20]
 115  01A4  0080     E  	mov _LCM_Display6x8_Num_2[1],a
 115  01A5  0F05        	mov a,5
 115  01A6  0080     E  	mov _LCM_Display6x8_Num_2[0],a
 115  01A7  0F03        	mov a,3
 115  01A8  2000     E  	call _LCM_Display6x8_Num
 116  01A9              #line 116 "C:\Users\user\Documents\HTK_Project\3652_adc_test_2\UI.c"
 116  01A9  1F00     E  	clr _LCM_Display6x8_Num_2[2]
 116  01AA  0700     R  	mov a,_update_frequency_2[4]
 116  01AB  0080     E  	mov _LCM_Display6x8_Num_2[1],a
 116  01AC  0F06        	mov a,6
 116  01AD  0080     E  	mov _LCM_Display6x8_Num_2[0],a
 116  01AE  0F03        	mov a,3
 116  01AF  2000     E  	call _LCM_Display6x8_Num
 117  01B0              #line 117 "C:\Users\user\Documents\HTK_Project\3652_adc_test_2\UI.c"
 117  01B0  1F00     E  	clr _LCM_Display6x8_Num_2[2]
 117  01B1  0700     R  	mov a,_update_frequency_2[8]
 117  01B2  0080     E  	mov _LCM_Display6x8_Num_2[1],a
 117  01B3  0F07        	mov a,7
 117  01B4  0080     E  	mov _LCM_Display6x8_Num_2[0],a
 117  01B5  0F03        	mov a,3
 117  01B6  2000     E  	call _LCM_Display6x8_Num
 118  01B7              #line 118 "C:\Users\user\Documents\HTK_Project\3652_adc_test_2\UI.c"
 118  01B7  1F00     E  	clr _LCM_Display6x8_Num_2[2]
 118  01B8  0700     R  	mov a,_update_frequency_2[12]
 118  01B9  0080     E  	mov _LCM_Display6x8_Num_2[1],a
 118  01BA  0F08        	mov a,8
 118  01BB  0080     E  	mov _LCM_Display6x8_Num_2[0],a
 118  01BC  0F03        	mov a,3
 118  01BD  2000     E  	call _LCM_Display6x8_Num
 119  01BE              #line 119 "C:\Users\user\Documents\HTK_Project\3652_adc_test_2\UI.c"
 119  01BE  1F00     E  	clr _LCM_Display6x8_Num_2[2]
 119  01BF  0700     R  	mov a,_update_frequency_2[24]
 119  01C0  0080     E  	mov _LCM_Display6x8_Num_2[1],a
 119  01C1  0F09        	mov a,9
 119  01C2  0080     E  	mov _LCM_Display6x8_Num_2[0],a
 119  01C3  0F03        	mov a,3
 119  01C4  2000     E  	call _LCM_Display6x8_Num
 119  01C5  0003        	ret
 119  01C6              _update_frequency endp
 119  01C6              #line 119 "C:\Users\user\Documents\HTK_Project\3652_adc_test_2\UI.c"
 119  01C6              #pragma debug scope 1 1
 119  01C6              public _Fre
 119  0000              @crom	.section 'crom'
  11  0000              #line 11 "C:\Users\user\Documents\HTK_Project\3652_adc_test_2\UI.c"
  11  0000              @crom	.section	'crom'
  11  0000              _Fre:
  11  0000              #pragma debug array 42 8 14 1
  11  0000              #pragma debug array 42 8 14 1
  11  0000              #pragma debug variable 42 1 _Fre "Fre"
  11  0000              	db 046h,072h,065h,03ah,034h,033h,033h,039h,032h,030h
  11  0005              	db 06bh,048h,07ah,00h
  11  0007              public _rcvRSSINUM
  10  0007              #line 10 "C:\Users\user\Documents\HTK_Project\3652_adc_test_2\UI.c"
  10  0007              @crom	.section	'crom'
"File: UI.c          Assembler  Version HGASM0202      Page 23

  10  0007              _rcvRSSINUM:
  10  0007              #pragma debug array 43 8 13 1
  10  0007              #pragma debug array 43 8 13 1
  10  0007              #pragma debug variable 43 1 _rcvRSSINUM "rcvRSSINUM"
  10  0007              	db 072h,063h,076h,052h,053h,053h,049h,03ah,02dh,030h
  10  000C              	db 030h,030h,00h
  10  000E              public _ErCOUNT
   9  000E              #line 9 "C:\Users\user\Documents\HTK_Project\3652_adc_test_2\UI.c"
   9  000E              @crom	.section	'crom'
   9  000E              _ErCOUNT:
   9  000E              #pragma debug array 44 8 8 1
   9  000E              #pragma debug array 44 8 8 1
   9  000E              #pragma debug variable 44 1 _ErCOUNT "ErCOUNT"
   9  000E              	db 045h,072h,03ah,030h,030h,030h,030h,00h
   9  0012              public _RXCOUNT
   8  0012              #line 8 "C:\Users\user\Documents\HTK_Project\3652_adc_test_2\UI.c"
   8  0012              @crom	.section	'crom'
   8  0012              _RXCOUNT:
   8  0012              #pragma debug variable 44 1 _RXCOUNT "RXCOUNT"
   8  0012              	db 052h,078h,03ah,030h,030h,030h,030h,00h
   8  0016              public _TXCOUNT
   7  0016              #line 7 "C:\Users\user\Documents\HTK_Project\3652_adc_test_2\UI.c"
   7  0016              @crom	.section	'crom'
   7  0016              _TXCOUNT:
   7  0016              #pragma debug variable 44 1 _TXCOUNT "TXCOUNT"
   7  0016              	db 054h,078h,03ah,030h,030h,030h,030h,00h
   7  001A              public _Interval
   6  001A              #line 6 "C:\Users\user\Documents\HTK_Project\3652_adc_test_2\UI.c"
   6  001A              @crom	.section	'crom'
   6  001A              _Interval:
   6  001A              #pragma debug array 45 8 3 1
   6  001A              #pragma debug array 45 8 3 1
   6  001A              #pragma debug variable 45 1 _Interval "Interval"
   6  001A              	db 07ch,07ch,00h
   6  001B              public _PERSLAVER
   5  001B              #line 5 "C:\Users\user\Documents\HTK_Project\3652_adc_test_2\UI.c"
   5  001B              @crom	.section	'crom'
   5  001B              _PERSLAVER:
   5  001B              #pragma debug variable 43 1 _PERSLAVER "PERSLAVER"
   5  001B              	db 03eh,03eh,050h,045h,052h,05fh,053h,06ch,061h,076h
   5  0020              	db 065h,072h,00h
   5  0022              public _PERMASTER
   4  0022              #line 4 "C:\Users\user\Documents\HTK_Project\3652_adc_test_2\UI.c"
   4  0022              @crom	.section	'crom'
   4  0022              _PERMASTER:
   4  0022              #pragma debug variable 43 1 _PERMASTER "PERMASTER"
   4  0022              	db 03eh,03eh,050h,045h,052h,05fh,04dh,061h,073h,074h
   4  0027              	db 065h,072h,00h
   4  0028              public _PERMODE
   3  0028              #line 3 "C:\Users\user\Documents\HTK_Project\3652_adc_test_2\UI.c"
   3  0028              @crom	.section	'crom'
   3  0028              _PERMODE:
   3  0028              #pragma debug array 46 8 9 1
   3  0028              #pragma debug array 46 8 9 1
   3  0028              #pragma debug variable 46 1 _PERMODE "PERMODE"
   3  0028              	db 050h,045h,052h,05fh,04dh,06fh,064h,065h,00h
   3  002D              
   3  002D              ; output external variables
   3  002D              extern _OFFDIS:near
   3  002D              extern _LCM_Display6x8_2:byte
"File: UI.c          Assembler  Version HGASM0202      Page 24

   3  002D              extern _LCM_Display6x8:near
   3  002D              extern _builtin_holtek_udivmodhi4_2:byte
   3  002D              extern _builtin_holtek_udivmodhi4:near
   3  002D              extern _builtin_holtek_mulhi3_2:byte
   3  002D              extern _builtin_holtek_mulhi3:near
   3  002D              extern _builtin_holtek_mulqi3_2:byte
   3  002D              extern _builtin_holtek_mulqi3:near
   3  002D              extern _LCM_Display6x8_Num_2:byte
   3  002D              extern _LCM_Display6x8_Num:near
   3  002D              extern _builtin_holtek_udivmodqi4_2:byte
   3  002D              extern _builtin_holtek_udivmodqi4:near
   3  002D              extern _builtin_holtek_divmodhi4:near
   3  002D              extern _builtin_holtek_udivmodsi4_2:byte
   3  002D              extern _builtin_holtek_udivmodsi4:near
   3  002D              extern _builtin_holtek_mulsi3_2:byte
   3  002D              extern _builtin_holtek_mulsi3:near
   3  002D              
   3  002D              ; 
   3  002D              ; Generated by holtek-gcc v3.19, Fri May 20 16:36:40 2022
   3  002D              ; Rebuild 718
   3  002D              ; end of file


        0 Errors, 0